ARM GAS  C:\Users\chuti\AppData\Local\Temp\cc0rZLEI.s 			page 1


   1              		.cpu cortex-m4
   2              		.eabi_attribute 27, 1
   3              		.eabi_attribute 28, 1
   4              		.eabi_attribute 20, 1
   5              		.eabi_attribute 21, 1
   6              		.eabi_attribute 23, 3
   7              		.eabi_attribute 24, 1
   8              		.eabi_attribute 25, 1
   9              		.eabi_attribute 26, 1
  10              		.eabi_attribute 30, 1
  11              		.eabi_attribute 34, 1
  12              		.eabi_attribute 18, 4
  13              		.file	"board.c"
  14              		.text
  15              	.Ltext0:
  16              		.cfi_sections	.debug_frame
  17              		.section	.text._SysTick_Config,"ax",%progbits
  18              		.align	1
  19              		.syntax unified
  20              		.thumb
  21              		.thumb_func
  22              		.fpu fpv4-sp-d16
  24              	_SysTick_Config:
  25              	.LFB15:
  26              		.file 1 "Middlewares/Third_Party/RealThread_RTOS_RT-Thread/bsp/board.c"
   1:Middlewares/Third_Party/RealThread_RTOS_RT-Thread/bsp/board.c **** /*
   2:Middlewares/Third_Party/RealThread_RTOS_RT-Thread/bsp/board.c ****  * Copyright (c) 2006-2019, RT-Thread Development Team
   3:Middlewares/Third_Party/RealThread_RTOS_RT-Thread/bsp/board.c ****  *
   4:Middlewares/Third_Party/RealThread_RTOS_RT-Thread/bsp/board.c ****  * SPDX-License-Identifier: Apache-2.0
   5:Middlewares/Third_Party/RealThread_RTOS_RT-Thread/bsp/board.c ****  *
   6:Middlewares/Third_Party/RealThread_RTOS_RT-Thread/bsp/board.c ****  * Change Logs:
   7:Middlewares/Third_Party/RealThread_RTOS_RT-Thread/bsp/board.c ****  * Date           Author       Notes
   8:Middlewares/Third_Party/RealThread_RTOS_RT-Thread/bsp/board.c ****  * 2017-07-24     Tanek        the first version
   9:Middlewares/Third_Party/RealThread_RTOS_RT-Thread/bsp/board.c ****  * 2018-11-12     Ernest Chen  modify copyright
  10:Middlewares/Third_Party/RealThread_RTOS_RT-Thread/bsp/board.c ****  */
  11:Middlewares/Third_Party/RealThread_RTOS_RT-Thread/bsp/board.c ****  
  12:Middlewares/Third_Party/RealThread_RTOS_RT-Thread/bsp/board.c **** #include <stdint.h>
  13:Middlewares/Third_Party/RealThread_RTOS_RT-Thread/bsp/board.c **** #include <rthw.h>
  14:Middlewares/Third_Party/RealThread_RTOS_RT-Thread/bsp/board.c **** #include <rtthread.h>
  15:Middlewares/Third_Party/RealThread_RTOS_RT-Thread/bsp/board.c **** 
  16:Middlewares/Third_Party/RealThread_RTOS_RT-Thread/bsp/board.c **** #define _SCB_BASE       (0xE000E010UL)
  17:Middlewares/Third_Party/RealThread_RTOS_RT-Thread/bsp/board.c **** #define _SYSTICK_CTRL   (*(rt_uint32_t *)(_SCB_BASE + 0x0))
  18:Middlewares/Third_Party/RealThread_RTOS_RT-Thread/bsp/board.c **** #define _SYSTICK_LOAD   (*(rt_uint32_t *)(_SCB_BASE + 0x4))
  19:Middlewares/Third_Party/RealThread_RTOS_RT-Thread/bsp/board.c **** #define _SYSTICK_VAL    (*(rt_uint32_t *)(_SCB_BASE + 0x8))
  20:Middlewares/Third_Party/RealThread_RTOS_RT-Thread/bsp/board.c **** #define _SYSTICK_CALIB  (*(rt_uint32_t *)(_SCB_BASE + 0xC))
  21:Middlewares/Third_Party/RealThread_RTOS_RT-Thread/bsp/board.c **** #define _SYSTICK_PRI    (*(rt_uint8_t  *)(0xE000ED23UL))
  22:Middlewares/Third_Party/RealThread_RTOS_RT-Thread/bsp/board.c **** 
  23:Middlewares/Third_Party/RealThread_RTOS_RT-Thread/bsp/board.c **** // Updates the variable SystemCoreClock and must be called 
  24:Middlewares/Third_Party/RealThread_RTOS_RT-Thread/bsp/board.c **** // whenever the core clock is changed during program execution.
  25:Middlewares/Third_Party/RealThread_RTOS_RT-Thread/bsp/board.c **** extern void SystemCoreClockUpdate(void);
  26:Middlewares/Third_Party/RealThread_RTOS_RT-Thread/bsp/board.c **** 
  27:Middlewares/Third_Party/RealThread_RTOS_RT-Thread/bsp/board.c **** // Holds the system core clock, which is the system clock 
  28:Middlewares/Third_Party/RealThread_RTOS_RT-Thread/bsp/board.c **** // frequency supplied to the SysTick timer and the processor 
  29:Middlewares/Third_Party/RealThread_RTOS_RT-Thread/bsp/board.c **** // core clock.
  30:Middlewares/Third_Party/RealThread_RTOS_RT-Thread/bsp/board.c **** extern uint32_t SystemCoreClock;
  31:Middlewares/Third_Party/RealThread_RTOS_RT-Thread/bsp/board.c **** 
  32:Middlewares/Third_Party/RealThread_RTOS_RT-Thread/bsp/board.c **** static uint32_t _SysTick_Config(rt_uint32_t ticks)
ARM GAS  C:\Users\chuti\AppData\Local\Temp\cc0rZLEI.s 			page 2


  33:Middlewares/Third_Party/RealThread_RTOS_RT-Thread/bsp/board.c **** {
  27              		.loc 1 33 0
  28              		.cfi_startproc
  29              		@ args = 0, pretend = 0, frame = 0
  30              		@ frame_needed = 0, uses_anonymous_args = 0
  31              		@ link register save eliminated.
  32              	.LVL0:
  34:Middlewares/Third_Party/RealThread_RTOS_RT-Thread/bsp/board.c ****     if ((ticks - 1) > 0xFFFFFF)
  33              		.loc 1 34 0
  34 0000 0138     		subs	r0, r0, #1
  35              	.LVL1:
  36 0002 B0F1807F 		cmp	r0, #16777216
  37 0006 0DD2     		bcs	.L3
  35:Middlewares/Third_Party/RealThread_RTOS_RT-Thread/bsp/board.c ****     {
  36:Middlewares/Third_Party/RealThread_RTOS_RT-Thread/bsp/board.c ****         return 1;
  37:Middlewares/Third_Party/RealThread_RTOS_RT-Thread/bsp/board.c ****     }
  38:Middlewares/Third_Party/RealThread_RTOS_RT-Thread/bsp/board.c ****     
  39:Middlewares/Third_Party/RealThread_RTOS_RT-Thread/bsp/board.c ****     _SYSTICK_LOAD = ticks - 1; 
  38              		.loc 1 39 0
  39 0008 074B     		ldr	r3, .L4
  40 000a 1860     		str	r0, [r3]
  40:Middlewares/Third_Party/RealThread_RTOS_RT-Thread/bsp/board.c ****     _SYSTICK_PRI = 0xFF;
  41              		.loc 1 40 0
  42 000c 03F60F53 		addw	r3, r3, #3343
  43 0010 FF22     		movs	r2, #255
  44 0012 1A70     		strb	r2, [r3]
  41:Middlewares/Third_Party/RealThread_RTOS_RT-Thread/bsp/board.c ****     _SYSTICK_VAL  = 0;
  45              		.loc 1 41 0
  46 0014 0020     		movs	r0, #0
  47              	.LVL2:
  48 0016 A3F60B53 		subw	r3, r3, #3339
  49 001a 1860     		str	r0, [r3]
  42:Middlewares/Third_Party/RealThread_RTOS_RT-Thread/bsp/board.c ****     _SYSTICK_CTRL = 0x07;  
  50              		.loc 1 42 0
  51 001c 083B     		subs	r3, r3, #8
  52 001e 0722     		movs	r2, #7
  53 0020 1A60     		str	r2, [r3]
  43:Middlewares/Third_Party/RealThread_RTOS_RT-Thread/bsp/board.c ****     
  44:Middlewares/Third_Party/RealThread_RTOS_RT-Thread/bsp/board.c ****     return 0;
  54              		.loc 1 44 0
  55 0022 7047     		bx	lr
  56              	.LVL3:
  57              	.L3:
  36:Middlewares/Third_Party/RealThread_RTOS_RT-Thread/bsp/board.c ****     }
  58              		.loc 1 36 0
  59 0024 0120     		movs	r0, #1
  60              	.LVL4:
  45:Middlewares/Third_Party/RealThread_RTOS_RT-Thread/bsp/board.c **** }
  61              		.loc 1 45 0
  62 0026 7047     		bx	lr
  63              	.L5:
  64              		.align	2
  65              	.L4:
  66 0028 14E000E0 		.word	-536813548
  67              		.cfi_endproc
  68              	.LFE15:
  70              		.section	.text.rt_heap_begin_get,"ax",%progbits
ARM GAS  C:\Users\chuti\AppData\Local\Temp\cc0rZLEI.s 			page 3


  71              		.align	1
  72              		.weak	rt_heap_begin_get
  73              		.syntax unified
  74              		.thumb
  75              		.thumb_func
  76              		.fpu fpv4-sp-d16
  78              	rt_heap_begin_get:
  79              	.LFB16:
  46:Middlewares/Third_Party/RealThread_RTOS_RT-Thread/bsp/board.c **** 
  47:Middlewares/Third_Party/RealThread_RTOS_RT-Thread/bsp/board.c **** #if defined(RT_USING_USER_MAIN) && defined(RT_USING_HEAP)
  48:Middlewares/Third_Party/RealThread_RTOS_RT-Thread/bsp/board.c **** #define RT_HEAP_SIZE 1024
  49:Middlewares/Third_Party/RealThread_RTOS_RT-Thread/bsp/board.c **** static uint32_t rt_heap[RT_HEAP_SIZE];     // heap default size: 4K(1024 * 4)
  50:Middlewares/Third_Party/RealThread_RTOS_RT-Thread/bsp/board.c **** RT_WEAK void *rt_heap_begin_get(void)
  51:Middlewares/Third_Party/RealThread_RTOS_RT-Thread/bsp/board.c **** {
  80              		.loc 1 51 0
  81              		.cfi_startproc
  82              		@ args = 0, pretend = 0, frame = 0
  83              		@ frame_needed = 0, uses_anonymous_args = 0
  84              		@ link register save eliminated.
  52:Middlewares/Third_Party/RealThread_RTOS_RT-Thread/bsp/board.c ****     return rt_heap;
  53:Middlewares/Third_Party/RealThread_RTOS_RT-Thread/bsp/board.c **** }
  85              		.loc 1 53 0
  86 0000 0048     		ldr	r0, .L7
  87 0002 7047     		bx	lr
  88              	.L8:
  89              		.align	2
  90              	.L7:
  91 0004 00000000 		.word	rt_heap
  92              		.cfi_endproc
  93              	.LFE16:
  95              		.section	.text.rt_heap_end_get,"ax",%progbits
  96              		.align	1
  97              		.weak	rt_heap_end_get
  98              		.syntax unified
  99              		.thumb
 100              		.thumb_func
 101              		.fpu fpv4-sp-d16
 103              	rt_heap_end_get:
 104              	.LFB17:
  54:Middlewares/Third_Party/RealThread_RTOS_RT-Thread/bsp/board.c **** 
  55:Middlewares/Third_Party/RealThread_RTOS_RT-Thread/bsp/board.c **** RT_WEAK void *rt_heap_end_get(void)
  56:Middlewares/Third_Party/RealThread_RTOS_RT-Thread/bsp/board.c **** {
 105              		.loc 1 56 0
 106              		.cfi_startproc
 107              		@ args = 0, pretend = 0, frame = 0
 108              		@ frame_needed = 0, uses_anonymous_args = 0
 109              		@ link register save eliminated.
  57:Middlewares/Third_Party/RealThread_RTOS_RT-Thread/bsp/board.c ****     return rt_heap + RT_HEAP_SIZE;
  58:Middlewares/Third_Party/RealThread_RTOS_RT-Thread/bsp/board.c **** }
 110              		.loc 1 58 0
 111 0000 0048     		ldr	r0, .L10
 112 0002 7047     		bx	lr
 113              	.L11:
 114              		.align	2
 115              	.L10:
 116 0004 00100000 		.word	rt_heap+4096
 117              		.cfi_endproc
ARM GAS  C:\Users\chuti\AppData\Local\Temp\cc0rZLEI.s 			page 4


 118              	.LFE17:
 120              		.section	.text.rt_hw_board_init,"ax",%progbits
 121              		.align	1
 122              		.global	rt_hw_board_init
 123              		.syntax unified
 124              		.thumb
 125              		.thumb_func
 126              		.fpu fpv4-sp-d16
 128              	rt_hw_board_init:
 129              	.LFB18:
  59:Middlewares/Third_Party/RealThread_RTOS_RT-Thread/bsp/board.c **** #endif
  60:Middlewares/Third_Party/RealThread_RTOS_RT-Thread/bsp/board.c **** 
  61:Middlewares/Third_Party/RealThread_RTOS_RT-Thread/bsp/board.c **** /**
  62:Middlewares/Third_Party/RealThread_RTOS_RT-Thread/bsp/board.c ****  * This function will initial your board.
  63:Middlewares/Third_Party/RealThread_RTOS_RT-Thread/bsp/board.c ****  */
  64:Middlewares/Third_Party/RealThread_RTOS_RT-Thread/bsp/board.c **** void rt_hw_board_init()
  65:Middlewares/Third_Party/RealThread_RTOS_RT-Thread/bsp/board.c **** {
 130              		.loc 1 65 0
 131              		.cfi_startproc
 132              		@ args = 0, pretend = 0, frame = 0
 133              		@ frame_needed = 0, uses_anonymous_args = 0
 134 0000 10B5     		push	{r4, lr}
 135              	.LCFI0:
 136              		.cfi_def_cfa_offset 8
 137              		.cfi_offset 4, -8
 138              		.cfi_offset 14, -4
  66:Middlewares/Third_Party/RealThread_RTOS_RT-Thread/bsp/board.c ****     /* System Clock Update */
  67:Middlewares/Third_Party/RealThread_RTOS_RT-Thread/bsp/board.c ****     SystemCoreClockUpdate();
 139              		.loc 1 67 0
 140 0002 FFF7FEFF 		bl	SystemCoreClockUpdate
 141              	.LVL5:
  68:Middlewares/Third_Party/RealThread_RTOS_RT-Thread/bsp/board.c ****     
  69:Middlewares/Third_Party/RealThread_RTOS_RT-Thread/bsp/board.c ****     /* System Tick Configuration */
  70:Middlewares/Third_Party/RealThread_RTOS_RT-Thread/bsp/board.c ****     _SysTick_Config(SystemCoreClock / RT_TICK_PER_SECOND);
 142              		.loc 1 70 0
 143 0006 0A4B     		ldr	r3, .L14
 144 0008 1868     		ldr	r0, [r3]
 145 000a 0A4B     		ldr	r3, .L14+4
 146 000c A3FB0030 		umull	r3, r0, r3, r0
 147 0010 8009     		lsrs	r0, r0, #6
 148 0012 FFF7FEFF 		bl	_SysTick_Config
 149              	.LVL6:
  71:Middlewares/Third_Party/RealThread_RTOS_RT-Thread/bsp/board.c **** 
  72:Middlewares/Third_Party/RealThread_RTOS_RT-Thread/bsp/board.c ****     /* Call components board initial (use INIT_BOARD_EXPORT()) */
  73:Middlewares/Third_Party/RealThread_RTOS_RT-Thread/bsp/board.c **** #ifdef RT_USING_COMPONENTS_INIT
  74:Middlewares/Third_Party/RealThread_RTOS_RT-Thread/bsp/board.c ****     rt_components_board_init();
 150              		.loc 1 74 0
 151 0016 FFF7FEFF 		bl	rt_components_board_init
 152              	.LVL7:
  75:Middlewares/Third_Party/RealThread_RTOS_RT-Thread/bsp/board.c **** #endif
  76:Middlewares/Third_Party/RealThread_RTOS_RT-Thread/bsp/board.c **** 
  77:Middlewares/Third_Party/RealThread_RTOS_RT-Thread/bsp/board.c **** #if defined(RT_USING_USER_MAIN) && defined(RT_USING_HEAP)
  78:Middlewares/Third_Party/RealThread_RTOS_RT-Thread/bsp/board.c ****     rt_system_heap_init(rt_heap_begin_get(), rt_heap_end_get());
 153              		.loc 1 78 0
 154 001a FFF7FEFF 		bl	rt_heap_begin_get
 155              	.LVL8:
 156 001e 0446     		mov	r4, r0
ARM GAS  C:\Users\chuti\AppData\Local\Temp\cc0rZLEI.s 			page 5


 157 0020 FFF7FEFF 		bl	rt_heap_end_get
 158              	.LVL9:
 159 0024 0146     		mov	r1, r0
 160 0026 2046     		mov	r0, r4
 161 0028 FFF7FEFF 		bl	rt_system_heap_init
 162              	.LVL10:
  79:Middlewares/Third_Party/RealThread_RTOS_RT-Thread/bsp/board.c **** #endif
  80:Middlewares/Third_Party/RealThread_RTOS_RT-Thread/bsp/board.c **** }
 163              		.loc 1 80 0
 164 002c 10BD     		pop	{r4, pc}
 165              	.L15:
 166 002e 00BF     		.align	2
 167              	.L14:
 168 0030 00000000 		.word	SystemCoreClock
 169 0034 D34D6210 		.word	274877907
 170              		.cfi_endproc
 171              	.LFE18:
 173              		.section	.text.SysTick_Handler,"ax",%progbits
 174              		.align	1
 175              		.global	SysTick_Handler
 176              		.syntax unified
 177              		.thumb
 178              		.thumb_func
 179              		.fpu fpv4-sp-d16
 181              	SysTick_Handler:
 182              	.LFB19:
  81:Middlewares/Third_Party/RealThread_RTOS_RT-Thread/bsp/board.c **** 
  82:Middlewares/Third_Party/RealThread_RTOS_RT-Thread/bsp/board.c **** void SysTick_Handler(void)
  83:Middlewares/Third_Party/RealThread_RTOS_RT-Thread/bsp/board.c **** {
 183              		.loc 1 83 0
 184              		.cfi_startproc
 185              		@ args = 0, pretend = 0, frame = 0
 186              		@ frame_needed = 0, uses_anonymous_args = 0
 187 0000 08B5     		push	{r3, lr}
 188              	.LCFI1:
 189              		.cfi_def_cfa_offset 8
 190              		.cfi_offset 3, -8
 191              		.cfi_offset 14, -4
  84:Middlewares/Third_Party/RealThread_RTOS_RT-Thread/bsp/board.c ****     /* enter interrupt */
  85:Middlewares/Third_Party/RealThread_RTOS_RT-Thread/bsp/board.c ****     rt_interrupt_enter();
 192              		.loc 1 85 0
 193 0002 FFF7FEFF 		bl	rt_interrupt_enter
 194              	.LVL11:
  86:Middlewares/Third_Party/RealThread_RTOS_RT-Thread/bsp/board.c **** 
  87:Middlewares/Third_Party/RealThread_RTOS_RT-Thread/bsp/board.c ****     rt_tick_increase();
 195              		.loc 1 87 0
 196 0006 FFF7FEFF 		bl	rt_tick_increase
 197              	.LVL12:
  88:Middlewares/Third_Party/RealThread_RTOS_RT-Thread/bsp/board.c **** 
  89:Middlewares/Third_Party/RealThread_RTOS_RT-Thread/bsp/board.c ****     /* leave interrupt */
  90:Middlewares/Third_Party/RealThread_RTOS_RT-Thread/bsp/board.c ****     rt_interrupt_leave();
 198              		.loc 1 90 0
 199 000a FFF7FEFF 		bl	rt_interrupt_leave
 200              	.LVL13:
  91:Middlewares/Third_Party/RealThread_RTOS_RT-Thread/bsp/board.c **** }
 201              		.loc 1 91 0
 202 000e 08BD     		pop	{r3, pc}
ARM GAS  C:\Users\chuti\AppData\Local\Temp\cc0rZLEI.s 			page 6


 203              		.cfi_endproc
 204              	.LFE19:
 206              		.section	.bss.rt_heap,"aw",%nobits
 207              		.align	2
 210              	rt_heap:
 211 0000 00000000 		.space	4096
 211      00000000 
 211      00000000 
 211      00000000 
 211      00000000 
 212              		.text
 213              	.Letext0:
 214              		.file 2 "c:\\st\\stm32cubeide_1.5.0\\stm32cubeide\\plugins\\com.st.stm32cube.ide.mcu.externaltools
 215              		.file 3 "c:\\st\\stm32cubeide_1.5.0\\stm32cubeide\\plugins\\com.st.stm32cube.ide.mcu.externaltools
 216              		.file 4 "Middlewares/Third_Party/RealThread_RTOS_RT-Thread/include/rtdef.h"
 217              		.file 5 "Middlewares/Third_Party/RealThread_RTOS_RT-Thread/include/rtthread.h"
ARM GAS  C:\Users\chuti\AppData\Local\Temp\cc0rZLEI.s 			page 7

