ARM GAS  C:\Users\chuti\AppData\Local\Temp\cctMPljw.s 			page 1


   1              		.cpu cortex-m4
   2              		.eabi_attribute 27, 1
   3              		.eabi_attribute 28, 1
   4              		.eabi_attribute 20, 1
   5              		.eabi_attribute 21, 1
   6              		.eabi_attribute 23, 3
   7              		.eabi_attribute 24, 1
   8              		.eabi_attribute 25, 1
   9              		.eabi_attribute 26, 1
  10              		.eabi_attribute 30, 1
  11              		.eabi_attribute 34, 1
  12              		.eabi_attribute 18, 4
  13              		.file	"kservice.c"
  14              		.text
  15              	.Ltext0:
  16              		.cfi_sections	.debug_frame
  17              		.section	.text.print_number,"ax",%progbits
  18              		.align	1
  19              		.syntax unified
  20              		.thumb
  21              		.thumb_func
  22              		.fpu fpv4-sp-d16
  24              	print_number:
  25              	.LFB33:
  26              		.file 1 "Middlewares/Third_Party/RealThread_RTOS_RT-Thread/src/kservice.c"
   1:Middlewares/Third_Party/RealThread_RTOS_RT-Thread/src/kservice.c **** /*
   2:Middlewares/Third_Party/RealThread_RTOS_RT-Thread/src/kservice.c ****  * Copyright (c) 2006-2018, RT-Thread Development Team
   3:Middlewares/Third_Party/RealThread_RTOS_RT-Thread/src/kservice.c ****  *
   4:Middlewares/Third_Party/RealThread_RTOS_RT-Thread/src/kservice.c ****  * SPDX-License-Identifier: Apache-2.0
   5:Middlewares/Third_Party/RealThread_RTOS_RT-Thread/src/kservice.c ****  *
   6:Middlewares/Third_Party/RealThread_RTOS_RT-Thread/src/kservice.c ****  * Change Logs:
   7:Middlewares/Third_Party/RealThread_RTOS_RT-Thread/src/kservice.c ****  * Date           Author       Notes
   8:Middlewares/Third_Party/RealThread_RTOS_RT-Thread/src/kservice.c ****  * 2006-03-16     Bernard      the first version
   9:Middlewares/Third_Party/RealThread_RTOS_RT-Thread/src/kservice.c ****  * 2006-05-25     Bernard      rewrite vsprintf
  10:Middlewares/Third_Party/RealThread_RTOS_RT-Thread/src/kservice.c ****  * 2006-08-10     Bernard      add rt_show_version
  11:Middlewares/Third_Party/RealThread_RTOS_RT-Thread/src/kservice.c ****  * 2010-03-17     Bernard      remove rt_strlcpy function
  12:Middlewares/Third_Party/RealThread_RTOS_RT-Thread/src/kservice.c ****  *                             fix gcc compiling issue.
  13:Middlewares/Third_Party/RealThread_RTOS_RT-Thread/src/kservice.c ****  * 2010-04-15     Bernard      remove weak definition on ICCM16C compiler
  14:Middlewares/Third_Party/RealThread_RTOS_RT-Thread/src/kservice.c ****  * 2012-07-18     Arda         add the alignment display for signed integer
  15:Middlewares/Third_Party/RealThread_RTOS_RT-Thread/src/kservice.c ****  * 2012-11-23     Bernard      fix IAR compiler error.
  16:Middlewares/Third_Party/RealThread_RTOS_RT-Thread/src/kservice.c ****  * 2012-12-22     Bernard      fix rt_kprintf issue, which found by Grissiom.
  17:Middlewares/Third_Party/RealThread_RTOS_RT-Thread/src/kservice.c ****  * 2013-06-24     Bernard      remove rt_kprintf if RT_USING_CONSOLE is not defined.
  18:Middlewares/Third_Party/RealThread_RTOS_RT-Thread/src/kservice.c ****  * 2013-09-24     aozima       make sure the device is in STREAM mode when used by rt_kprintf.
  19:Middlewares/Third_Party/RealThread_RTOS_RT-Thread/src/kservice.c ****  * 2015-07-06     Bernard      Add rt_assert_handler routine.
  20:Middlewares/Third_Party/RealThread_RTOS_RT-Thread/src/kservice.c ****  */
  21:Middlewares/Third_Party/RealThread_RTOS_RT-Thread/src/kservice.c **** 
  22:Middlewares/Third_Party/RealThread_RTOS_RT-Thread/src/kservice.c **** #include <rtthread.h>
  23:Middlewares/Third_Party/RealThread_RTOS_RT-Thread/src/kservice.c **** #include <rthw.h>
  24:Middlewares/Third_Party/RealThread_RTOS_RT-Thread/src/kservice.c **** 
  25:Middlewares/Third_Party/RealThread_RTOS_RT-Thread/src/kservice.c **** #ifdef RT_USING_MODULE
  26:Middlewares/Third_Party/RealThread_RTOS_RT-Thread/src/kservice.c **** #include <dlmodule.h>
  27:Middlewares/Third_Party/RealThread_RTOS_RT-Thread/src/kservice.c **** #endif
  28:Middlewares/Third_Party/RealThread_RTOS_RT-Thread/src/kservice.c **** 
  29:Middlewares/Third_Party/RealThread_RTOS_RT-Thread/src/kservice.c **** /* use precision */
  30:Middlewares/Third_Party/RealThread_RTOS_RT-Thread/src/kservice.c **** #define RT_PRINTF_PRECISION
  31:Middlewares/Third_Party/RealThread_RTOS_RT-Thread/src/kservice.c **** 
  32:Middlewares/Third_Party/RealThread_RTOS_RT-Thread/src/kservice.c **** /**
ARM GAS  C:\Users\chuti\AppData\Local\Temp\cctMPljw.s 			page 2


  33:Middlewares/Third_Party/RealThread_RTOS_RT-Thread/src/kservice.c ****  * @addtogroup KernelService
  34:Middlewares/Third_Party/RealThread_RTOS_RT-Thread/src/kservice.c ****  */
  35:Middlewares/Third_Party/RealThread_RTOS_RT-Thread/src/kservice.c **** 
  36:Middlewares/Third_Party/RealThread_RTOS_RT-Thread/src/kservice.c **** /**@{*/
  37:Middlewares/Third_Party/RealThread_RTOS_RT-Thread/src/kservice.c **** 
  38:Middlewares/Third_Party/RealThread_RTOS_RT-Thread/src/kservice.c **** /* global errno in RT-Thread */
  39:Middlewares/Third_Party/RealThread_RTOS_RT-Thread/src/kservice.c **** static volatile int __rt_errno;
  40:Middlewares/Third_Party/RealThread_RTOS_RT-Thread/src/kservice.c **** 
  41:Middlewares/Third_Party/RealThread_RTOS_RT-Thread/src/kservice.c **** #if defined(RT_USING_DEVICE) && defined(RT_USING_CONSOLE)
  42:Middlewares/Third_Party/RealThread_RTOS_RT-Thread/src/kservice.c **** static rt_device_t _console_device = RT_NULL;
  43:Middlewares/Third_Party/RealThread_RTOS_RT-Thread/src/kservice.c **** #endif
  44:Middlewares/Third_Party/RealThread_RTOS_RT-Thread/src/kservice.c **** 
  45:Middlewares/Third_Party/RealThread_RTOS_RT-Thread/src/kservice.c **** /*
  46:Middlewares/Third_Party/RealThread_RTOS_RT-Thread/src/kservice.c ****  * This function will get errno
  47:Middlewares/Third_Party/RealThread_RTOS_RT-Thread/src/kservice.c ****  *
  48:Middlewares/Third_Party/RealThread_RTOS_RT-Thread/src/kservice.c ****  * @return errno
  49:Middlewares/Third_Party/RealThread_RTOS_RT-Thread/src/kservice.c ****  */
  50:Middlewares/Third_Party/RealThread_RTOS_RT-Thread/src/kservice.c **** rt_err_t rt_get_errno(void)
  51:Middlewares/Third_Party/RealThread_RTOS_RT-Thread/src/kservice.c **** {
  52:Middlewares/Third_Party/RealThread_RTOS_RT-Thread/src/kservice.c ****     rt_thread_t tid;
  53:Middlewares/Third_Party/RealThread_RTOS_RT-Thread/src/kservice.c **** 
  54:Middlewares/Third_Party/RealThread_RTOS_RT-Thread/src/kservice.c ****     if (rt_interrupt_get_nest() != 0)
  55:Middlewares/Third_Party/RealThread_RTOS_RT-Thread/src/kservice.c ****     {
  56:Middlewares/Third_Party/RealThread_RTOS_RT-Thread/src/kservice.c ****         /* it's in interrupt context */
  57:Middlewares/Third_Party/RealThread_RTOS_RT-Thread/src/kservice.c ****         return __rt_errno;
  58:Middlewares/Third_Party/RealThread_RTOS_RT-Thread/src/kservice.c ****     }
  59:Middlewares/Third_Party/RealThread_RTOS_RT-Thread/src/kservice.c **** 
  60:Middlewares/Third_Party/RealThread_RTOS_RT-Thread/src/kservice.c ****     tid = rt_thread_self();
  61:Middlewares/Third_Party/RealThread_RTOS_RT-Thread/src/kservice.c ****     if (tid == RT_NULL)
  62:Middlewares/Third_Party/RealThread_RTOS_RT-Thread/src/kservice.c ****         return __rt_errno;
  63:Middlewares/Third_Party/RealThread_RTOS_RT-Thread/src/kservice.c **** 
  64:Middlewares/Third_Party/RealThread_RTOS_RT-Thread/src/kservice.c ****     return tid->error;
  65:Middlewares/Third_Party/RealThread_RTOS_RT-Thread/src/kservice.c **** }
  66:Middlewares/Third_Party/RealThread_RTOS_RT-Thread/src/kservice.c **** RTM_EXPORT(rt_get_errno);
  67:Middlewares/Third_Party/RealThread_RTOS_RT-Thread/src/kservice.c **** 
  68:Middlewares/Third_Party/RealThread_RTOS_RT-Thread/src/kservice.c **** /*
  69:Middlewares/Third_Party/RealThread_RTOS_RT-Thread/src/kservice.c ****  * This function will set errno
  70:Middlewares/Third_Party/RealThread_RTOS_RT-Thread/src/kservice.c ****  *
  71:Middlewares/Third_Party/RealThread_RTOS_RT-Thread/src/kservice.c ****  * @param error the errno shall be set
  72:Middlewares/Third_Party/RealThread_RTOS_RT-Thread/src/kservice.c ****  */
  73:Middlewares/Third_Party/RealThread_RTOS_RT-Thread/src/kservice.c **** void rt_set_errno(rt_err_t error)
  74:Middlewares/Third_Party/RealThread_RTOS_RT-Thread/src/kservice.c **** {
  75:Middlewares/Third_Party/RealThread_RTOS_RT-Thread/src/kservice.c ****     rt_thread_t tid;
  76:Middlewares/Third_Party/RealThread_RTOS_RT-Thread/src/kservice.c **** 
  77:Middlewares/Third_Party/RealThread_RTOS_RT-Thread/src/kservice.c ****     if (rt_interrupt_get_nest() != 0)
  78:Middlewares/Third_Party/RealThread_RTOS_RT-Thread/src/kservice.c ****     {
  79:Middlewares/Third_Party/RealThread_RTOS_RT-Thread/src/kservice.c ****         /* it's in interrupt context */
  80:Middlewares/Third_Party/RealThread_RTOS_RT-Thread/src/kservice.c ****         __rt_errno = error;
  81:Middlewares/Third_Party/RealThread_RTOS_RT-Thread/src/kservice.c **** 
  82:Middlewares/Third_Party/RealThread_RTOS_RT-Thread/src/kservice.c ****         return;
  83:Middlewares/Third_Party/RealThread_RTOS_RT-Thread/src/kservice.c ****     }
  84:Middlewares/Third_Party/RealThread_RTOS_RT-Thread/src/kservice.c **** 
  85:Middlewares/Third_Party/RealThread_RTOS_RT-Thread/src/kservice.c ****     tid = rt_thread_self();
  86:Middlewares/Third_Party/RealThread_RTOS_RT-Thread/src/kservice.c ****     if (tid == RT_NULL)
  87:Middlewares/Third_Party/RealThread_RTOS_RT-Thread/src/kservice.c ****     {
  88:Middlewares/Third_Party/RealThread_RTOS_RT-Thread/src/kservice.c ****         __rt_errno = error;
  89:Middlewares/Third_Party/RealThread_RTOS_RT-Thread/src/kservice.c **** 
ARM GAS  C:\Users\chuti\AppData\Local\Temp\cctMPljw.s 			page 3


  90:Middlewares/Third_Party/RealThread_RTOS_RT-Thread/src/kservice.c ****         return;
  91:Middlewares/Third_Party/RealThread_RTOS_RT-Thread/src/kservice.c ****     }
  92:Middlewares/Third_Party/RealThread_RTOS_RT-Thread/src/kservice.c **** 
  93:Middlewares/Third_Party/RealThread_RTOS_RT-Thread/src/kservice.c ****     tid->error = error;
  94:Middlewares/Third_Party/RealThread_RTOS_RT-Thread/src/kservice.c **** }
  95:Middlewares/Third_Party/RealThread_RTOS_RT-Thread/src/kservice.c **** RTM_EXPORT(rt_set_errno);
  96:Middlewares/Third_Party/RealThread_RTOS_RT-Thread/src/kservice.c **** 
  97:Middlewares/Third_Party/RealThread_RTOS_RT-Thread/src/kservice.c **** /**
  98:Middlewares/Third_Party/RealThread_RTOS_RT-Thread/src/kservice.c ****  * This function returns errno.
  99:Middlewares/Third_Party/RealThread_RTOS_RT-Thread/src/kservice.c ****  *
 100:Middlewares/Third_Party/RealThread_RTOS_RT-Thread/src/kservice.c ****  * @return the errno in the system
 101:Middlewares/Third_Party/RealThread_RTOS_RT-Thread/src/kservice.c ****  */
 102:Middlewares/Third_Party/RealThread_RTOS_RT-Thread/src/kservice.c **** int *_rt_errno(void)
 103:Middlewares/Third_Party/RealThread_RTOS_RT-Thread/src/kservice.c **** {
 104:Middlewares/Third_Party/RealThread_RTOS_RT-Thread/src/kservice.c ****     rt_thread_t tid;
 105:Middlewares/Third_Party/RealThread_RTOS_RT-Thread/src/kservice.c **** 
 106:Middlewares/Third_Party/RealThread_RTOS_RT-Thread/src/kservice.c ****     if (rt_interrupt_get_nest() != 0)
 107:Middlewares/Third_Party/RealThread_RTOS_RT-Thread/src/kservice.c ****         return (int *)&__rt_errno;
 108:Middlewares/Third_Party/RealThread_RTOS_RT-Thread/src/kservice.c **** 
 109:Middlewares/Third_Party/RealThread_RTOS_RT-Thread/src/kservice.c ****     tid = rt_thread_self();
 110:Middlewares/Third_Party/RealThread_RTOS_RT-Thread/src/kservice.c ****     if (tid != RT_NULL)
 111:Middlewares/Third_Party/RealThread_RTOS_RT-Thread/src/kservice.c ****         return (int *) & (tid->error);
 112:Middlewares/Third_Party/RealThread_RTOS_RT-Thread/src/kservice.c **** 
 113:Middlewares/Third_Party/RealThread_RTOS_RT-Thread/src/kservice.c ****     return (int *)&__rt_errno;
 114:Middlewares/Third_Party/RealThread_RTOS_RT-Thread/src/kservice.c **** }
 115:Middlewares/Third_Party/RealThread_RTOS_RT-Thread/src/kservice.c **** RTM_EXPORT(_rt_errno);
 116:Middlewares/Third_Party/RealThread_RTOS_RT-Thread/src/kservice.c **** 
 117:Middlewares/Third_Party/RealThread_RTOS_RT-Thread/src/kservice.c **** /**
 118:Middlewares/Third_Party/RealThread_RTOS_RT-Thread/src/kservice.c ****  * This function will set the content of memory to specified value
 119:Middlewares/Third_Party/RealThread_RTOS_RT-Thread/src/kservice.c ****  *
 120:Middlewares/Third_Party/RealThread_RTOS_RT-Thread/src/kservice.c ****  * @param s the address of source memory
 121:Middlewares/Third_Party/RealThread_RTOS_RT-Thread/src/kservice.c ****  * @param c the value shall be set in content
 122:Middlewares/Third_Party/RealThread_RTOS_RT-Thread/src/kservice.c ****  * @param count the copied length
 123:Middlewares/Third_Party/RealThread_RTOS_RT-Thread/src/kservice.c ****  *
 124:Middlewares/Third_Party/RealThread_RTOS_RT-Thread/src/kservice.c ****  * @return the address of source memory
 125:Middlewares/Third_Party/RealThread_RTOS_RT-Thread/src/kservice.c ****  */
 126:Middlewares/Third_Party/RealThread_RTOS_RT-Thread/src/kservice.c **** void *rt_memset(void *s, int c, rt_ubase_t count)
 127:Middlewares/Third_Party/RealThread_RTOS_RT-Thread/src/kservice.c **** {
 128:Middlewares/Third_Party/RealThread_RTOS_RT-Thread/src/kservice.c **** #ifdef RT_USING_TINY_SIZE
 129:Middlewares/Third_Party/RealThread_RTOS_RT-Thread/src/kservice.c ****     char *xs = (char *)s;
 130:Middlewares/Third_Party/RealThread_RTOS_RT-Thread/src/kservice.c **** 
 131:Middlewares/Third_Party/RealThread_RTOS_RT-Thread/src/kservice.c ****     while (count--)
 132:Middlewares/Third_Party/RealThread_RTOS_RT-Thread/src/kservice.c ****         *xs++ = c;
 133:Middlewares/Third_Party/RealThread_RTOS_RT-Thread/src/kservice.c **** 
 134:Middlewares/Third_Party/RealThread_RTOS_RT-Thread/src/kservice.c ****     return s;
 135:Middlewares/Third_Party/RealThread_RTOS_RT-Thread/src/kservice.c **** #else
 136:Middlewares/Third_Party/RealThread_RTOS_RT-Thread/src/kservice.c **** #define LBLOCKSIZE      (sizeof(long))
 137:Middlewares/Third_Party/RealThread_RTOS_RT-Thread/src/kservice.c **** #define UNALIGNED(X)    ((long)X & (LBLOCKSIZE - 1))
 138:Middlewares/Third_Party/RealThread_RTOS_RT-Thread/src/kservice.c **** #define TOO_SMALL(LEN)  ((LEN) < LBLOCKSIZE)
 139:Middlewares/Third_Party/RealThread_RTOS_RT-Thread/src/kservice.c **** 
 140:Middlewares/Third_Party/RealThread_RTOS_RT-Thread/src/kservice.c ****     unsigned int i;
 141:Middlewares/Third_Party/RealThread_RTOS_RT-Thread/src/kservice.c ****     char *m = (char *)s;
 142:Middlewares/Third_Party/RealThread_RTOS_RT-Thread/src/kservice.c ****     unsigned long buffer;
 143:Middlewares/Third_Party/RealThread_RTOS_RT-Thread/src/kservice.c ****     unsigned long *aligned_addr;
 144:Middlewares/Third_Party/RealThread_RTOS_RT-Thread/src/kservice.c ****     unsigned int d = c & 0xff;  /* To avoid sign extension, copy C to an
 145:Middlewares/Third_Party/RealThread_RTOS_RT-Thread/src/kservice.c ****                                 unsigned variable.  */
 146:Middlewares/Third_Party/RealThread_RTOS_RT-Thread/src/kservice.c **** 
ARM GAS  C:\Users\chuti\AppData\Local\Temp\cctMPljw.s 			page 4


 147:Middlewares/Third_Party/RealThread_RTOS_RT-Thread/src/kservice.c ****     if (!TOO_SMALL(count) && !UNALIGNED(s))
 148:Middlewares/Third_Party/RealThread_RTOS_RT-Thread/src/kservice.c ****     {
 149:Middlewares/Third_Party/RealThread_RTOS_RT-Thread/src/kservice.c ****         /* If we get this far, we know that n is large and m is word-aligned. */
 150:Middlewares/Third_Party/RealThread_RTOS_RT-Thread/src/kservice.c ****         aligned_addr = (unsigned long *)s;
 151:Middlewares/Third_Party/RealThread_RTOS_RT-Thread/src/kservice.c **** 
 152:Middlewares/Third_Party/RealThread_RTOS_RT-Thread/src/kservice.c ****         /* Store D into each char sized location in BUFFER so that
 153:Middlewares/Third_Party/RealThread_RTOS_RT-Thread/src/kservice.c ****          * we can set large blocks quickly.
 154:Middlewares/Third_Party/RealThread_RTOS_RT-Thread/src/kservice.c ****          */
 155:Middlewares/Third_Party/RealThread_RTOS_RT-Thread/src/kservice.c ****         if (LBLOCKSIZE == 4)
 156:Middlewares/Third_Party/RealThread_RTOS_RT-Thread/src/kservice.c ****         {
 157:Middlewares/Third_Party/RealThread_RTOS_RT-Thread/src/kservice.c ****             buffer = (d << 8) | d;
 158:Middlewares/Third_Party/RealThread_RTOS_RT-Thread/src/kservice.c ****             buffer |= (buffer << 16);
 159:Middlewares/Third_Party/RealThread_RTOS_RT-Thread/src/kservice.c ****         }
 160:Middlewares/Third_Party/RealThread_RTOS_RT-Thread/src/kservice.c ****         else
 161:Middlewares/Third_Party/RealThread_RTOS_RT-Thread/src/kservice.c ****         {
 162:Middlewares/Third_Party/RealThread_RTOS_RT-Thread/src/kservice.c ****             buffer = 0;
 163:Middlewares/Third_Party/RealThread_RTOS_RT-Thread/src/kservice.c ****             for (i = 0; i < LBLOCKSIZE; i ++)
 164:Middlewares/Third_Party/RealThread_RTOS_RT-Thread/src/kservice.c ****                 buffer = (buffer << 8) | d;
 165:Middlewares/Third_Party/RealThread_RTOS_RT-Thread/src/kservice.c ****         }
 166:Middlewares/Third_Party/RealThread_RTOS_RT-Thread/src/kservice.c **** 
 167:Middlewares/Third_Party/RealThread_RTOS_RT-Thread/src/kservice.c ****         while (count >= LBLOCKSIZE * 4)
 168:Middlewares/Third_Party/RealThread_RTOS_RT-Thread/src/kservice.c ****         {
 169:Middlewares/Third_Party/RealThread_RTOS_RT-Thread/src/kservice.c ****             *aligned_addr++ = buffer;
 170:Middlewares/Third_Party/RealThread_RTOS_RT-Thread/src/kservice.c ****             *aligned_addr++ = buffer;
 171:Middlewares/Third_Party/RealThread_RTOS_RT-Thread/src/kservice.c ****             *aligned_addr++ = buffer;
 172:Middlewares/Third_Party/RealThread_RTOS_RT-Thread/src/kservice.c ****             *aligned_addr++ = buffer;
 173:Middlewares/Third_Party/RealThread_RTOS_RT-Thread/src/kservice.c ****             count -= 4 * LBLOCKSIZE;
 174:Middlewares/Third_Party/RealThread_RTOS_RT-Thread/src/kservice.c ****         }
 175:Middlewares/Third_Party/RealThread_RTOS_RT-Thread/src/kservice.c **** 
 176:Middlewares/Third_Party/RealThread_RTOS_RT-Thread/src/kservice.c ****         while (count >= LBLOCKSIZE)
 177:Middlewares/Third_Party/RealThread_RTOS_RT-Thread/src/kservice.c ****         {
 178:Middlewares/Third_Party/RealThread_RTOS_RT-Thread/src/kservice.c ****             *aligned_addr++ = buffer;
 179:Middlewares/Third_Party/RealThread_RTOS_RT-Thread/src/kservice.c ****             count -= LBLOCKSIZE;
 180:Middlewares/Third_Party/RealThread_RTOS_RT-Thread/src/kservice.c ****         }
 181:Middlewares/Third_Party/RealThread_RTOS_RT-Thread/src/kservice.c **** 
 182:Middlewares/Third_Party/RealThread_RTOS_RT-Thread/src/kservice.c ****         /* Pick up the remainder with a bytewise loop. */
 183:Middlewares/Third_Party/RealThread_RTOS_RT-Thread/src/kservice.c ****         m = (char *)aligned_addr;
 184:Middlewares/Third_Party/RealThread_RTOS_RT-Thread/src/kservice.c ****     }
 185:Middlewares/Third_Party/RealThread_RTOS_RT-Thread/src/kservice.c **** 
 186:Middlewares/Third_Party/RealThread_RTOS_RT-Thread/src/kservice.c ****     while (count--)
 187:Middlewares/Third_Party/RealThread_RTOS_RT-Thread/src/kservice.c ****     {
 188:Middlewares/Third_Party/RealThread_RTOS_RT-Thread/src/kservice.c ****         *m++ = (char)d;
 189:Middlewares/Third_Party/RealThread_RTOS_RT-Thread/src/kservice.c ****     }
 190:Middlewares/Third_Party/RealThread_RTOS_RT-Thread/src/kservice.c **** 
 191:Middlewares/Third_Party/RealThread_RTOS_RT-Thread/src/kservice.c ****     return s;
 192:Middlewares/Third_Party/RealThread_RTOS_RT-Thread/src/kservice.c **** 
 193:Middlewares/Third_Party/RealThread_RTOS_RT-Thread/src/kservice.c **** #undef LBLOCKSIZE
 194:Middlewares/Third_Party/RealThread_RTOS_RT-Thread/src/kservice.c **** #undef UNALIGNED
 195:Middlewares/Third_Party/RealThread_RTOS_RT-Thread/src/kservice.c **** #undef TOO_SMALL
 196:Middlewares/Third_Party/RealThread_RTOS_RT-Thread/src/kservice.c **** #endif
 197:Middlewares/Third_Party/RealThread_RTOS_RT-Thread/src/kservice.c **** }
 198:Middlewares/Third_Party/RealThread_RTOS_RT-Thread/src/kservice.c **** RTM_EXPORT(rt_memset);
 199:Middlewares/Third_Party/RealThread_RTOS_RT-Thread/src/kservice.c **** 
 200:Middlewares/Third_Party/RealThread_RTOS_RT-Thread/src/kservice.c **** /**
 201:Middlewares/Third_Party/RealThread_RTOS_RT-Thread/src/kservice.c ****  * This function will copy memory content from source address to destination
 202:Middlewares/Third_Party/RealThread_RTOS_RT-Thread/src/kservice.c ****  * address.
 203:Middlewares/Third_Party/RealThread_RTOS_RT-Thread/src/kservice.c ****  *
ARM GAS  C:\Users\chuti\AppData\Local\Temp\cctMPljw.s 			page 5


 204:Middlewares/Third_Party/RealThread_RTOS_RT-Thread/src/kservice.c ****  * @param dst the address of destination memory
 205:Middlewares/Third_Party/RealThread_RTOS_RT-Thread/src/kservice.c ****  * @param src  the address of source memory
 206:Middlewares/Third_Party/RealThread_RTOS_RT-Thread/src/kservice.c ****  * @param count the copied length
 207:Middlewares/Third_Party/RealThread_RTOS_RT-Thread/src/kservice.c ****  *
 208:Middlewares/Third_Party/RealThread_RTOS_RT-Thread/src/kservice.c ****  * @return the address of destination memory
 209:Middlewares/Third_Party/RealThread_RTOS_RT-Thread/src/kservice.c ****  */
 210:Middlewares/Third_Party/RealThread_RTOS_RT-Thread/src/kservice.c **** void *rt_memcpy(void *dst, const void *src, rt_ubase_t count)
 211:Middlewares/Third_Party/RealThread_RTOS_RT-Thread/src/kservice.c **** {
 212:Middlewares/Third_Party/RealThread_RTOS_RT-Thread/src/kservice.c **** #ifdef RT_USING_TINY_SIZE
 213:Middlewares/Third_Party/RealThread_RTOS_RT-Thread/src/kservice.c ****     char *tmp = (char *)dst, *s = (char *)src;
 214:Middlewares/Third_Party/RealThread_RTOS_RT-Thread/src/kservice.c ****     rt_ubase_t len;
 215:Middlewares/Third_Party/RealThread_RTOS_RT-Thread/src/kservice.c **** 
 216:Middlewares/Third_Party/RealThread_RTOS_RT-Thread/src/kservice.c ****     if (tmp <= s || tmp > (s + count))
 217:Middlewares/Third_Party/RealThread_RTOS_RT-Thread/src/kservice.c ****     {
 218:Middlewares/Third_Party/RealThread_RTOS_RT-Thread/src/kservice.c ****         while (count--)
 219:Middlewares/Third_Party/RealThread_RTOS_RT-Thread/src/kservice.c ****             *tmp ++ = *s ++;
 220:Middlewares/Third_Party/RealThread_RTOS_RT-Thread/src/kservice.c ****     }
 221:Middlewares/Third_Party/RealThread_RTOS_RT-Thread/src/kservice.c ****     else
 222:Middlewares/Third_Party/RealThread_RTOS_RT-Thread/src/kservice.c ****     {
 223:Middlewares/Third_Party/RealThread_RTOS_RT-Thread/src/kservice.c ****         for (len = count; len > 0; len --)
 224:Middlewares/Third_Party/RealThread_RTOS_RT-Thread/src/kservice.c ****             tmp[len - 1] = s[len - 1];
 225:Middlewares/Third_Party/RealThread_RTOS_RT-Thread/src/kservice.c ****     }
 226:Middlewares/Third_Party/RealThread_RTOS_RT-Thread/src/kservice.c **** 
 227:Middlewares/Third_Party/RealThread_RTOS_RT-Thread/src/kservice.c ****     return dst;
 228:Middlewares/Third_Party/RealThread_RTOS_RT-Thread/src/kservice.c **** #else
 229:Middlewares/Third_Party/RealThread_RTOS_RT-Thread/src/kservice.c **** 
 230:Middlewares/Third_Party/RealThread_RTOS_RT-Thread/src/kservice.c **** #define UNALIGNED(X, Y) \
 231:Middlewares/Third_Party/RealThread_RTOS_RT-Thread/src/kservice.c ****     (((long)X & (sizeof (long) - 1)) | ((long)Y & (sizeof (long) - 1)))
 232:Middlewares/Third_Party/RealThread_RTOS_RT-Thread/src/kservice.c **** #define BIGBLOCKSIZE    (sizeof (long) << 2)
 233:Middlewares/Third_Party/RealThread_RTOS_RT-Thread/src/kservice.c **** #define LITTLEBLOCKSIZE (sizeof (long))
 234:Middlewares/Third_Party/RealThread_RTOS_RT-Thread/src/kservice.c **** #define TOO_SMALL(LEN)  ((LEN) < BIGBLOCKSIZE)
 235:Middlewares/Third_Party/RealThread_RTOS_RT-Thread/src/kservice.c **** 
 236:Middlewares/Third_Party/RealThread_RTOS_RT-Thread/src/kservice.c ****     char *dst_ptr = (char *)dst;
 237:Middlewares/Third_Party/RealThread_RTOS_RT-Thread/src/kservice.c ****     char *src_ptr = (char *)src;
 238:Middlewares/Third_Party/RealThread_RTOS_RT-Thread/src/kservice.c ****     long *aligned_dst;
 239:Middlewares/Third_Party/RealThread_RTOS_RT-Thread/src/kservice.c ****     long *aligned_src;
 240:Middlewares/Third_Party/RealThread_RTOS_RT-Thread/src/kservice.c ****     int len = count;
 241:Middlewares/Third_Party/RealThread_RTOS_RT-Thread/src/kservice.c **** 
 242:Middlewares/Third_Party/RealThread_RTOS_RT-Thread/src/kservice.c ****     /* If the size is small, or either SRC or DST is unaligned,
 243:Middlewares/Third_Party/RealThread_RTOS_RT-Thread/src/kservice.c ****     then punt into the byte copy loop.  This should be rare. */
 244:Middlewares/Third_Party/RealThread_RTOS_RT-Thread/src/kservice.c ****     if (!TOO_SMALL(len) && !UNALIGNED(src_ptr, dst_ptr))
 245:Middlewares/Third_Party/RealThread_RTOS_RT-Thread/src/kservice.c ****     {
 246:Middlewares/Third_Party/RealThread_RTOS_RT-Thread/src/kservice.c ****         aligned_dst = (long *)dst_ptr;
 247:Middlewares/Third_Party/RealThread_RTOS_RT-Thread/src/kservice.c ****         aligned_src = (long *)src_ptr;
 248:Middlewares/Third_Party/RealThread_RTOS_RT-Thread/src/kservice.c **** 
 249:Middlewares/Third_Party/RealThread_RTOS_RT-Thread/src/kservice.c ****         /* Copy 4X long words at a time if possible. */
 250:Middlewares/Third_Party/RealThread_RTOS_RT-Thread/src/kservice.c ****         while (len >= BIGBLOCKSIZE)
 251:Middlewares/Third_Party/RealThread_RTOS_RT-Thread/src/kservice.c ****         {
 252:Middlewares/Third_Party/RealThread_RTOS_RT-Thread/src/kservice.c ****             *aligned_dst++ = *aligned_src++;
 253:Middlewares/Third_Party/RealThread_RTOS_RT-Thread/src/kservice.c ****             *aligned_dst++ = *aligned_src++;
 254:Middlewares/Third_Party/RealThread_RTOS_RT-Thread/src/kservice.c ****             *aligned_dst++ = *aligned_src++;
 255:Middlewares/Third_Party/RealThread_RTOS_RT-Thread/src/kservice.c ****             *aligned_dst++ = *aligned_src++;
 256:Middlewares/Third_Party/RealThread_RTOS_RT-Thread/src/kservice.c ****             len -= BIGBLOCKSIZE;
 257:Middlewares/Third_Party/RealThread_RTOS_RT-Thread/src/kservice.c ****         }
 258:Middlewares/Third_Party/RealThread_RTOS_RT-Thread/src/kservice.c **** 
 259:Middlewares/Third_Party/RealThread_RTOS_RT-Thread/src/kservice.c ****         /* Copy one long word at a time if possible. */
 260:Middlewares/Third_Party/RealThread_RTOS_RT-Thread/src/kservice.c ****         while (len >= LITTLEBLOCKSIZE)
ARM GAS  C:\Users\chuti\AppData\Local\Temp\cctMPljw.s 			page 6


 261:Middlewares/Third_Party/RealThread_RTOS_RT-Thread/src/kservice.c ****         {
 262:Middlewares/Third_Party/RealThread_RTOS_RT-Thread/src/kservice.c ****             *aligned_dst++ = *aligned_src++;
 263:Middlewares/Third_Party/RealThread_RTOS_RT-Thread/src/kservice.c ****             len -= LITTLEBLOCKSIZE;
 264:Middlewares/Third_Party/RealThread_RTOS_RT-Thread/src/kservice.c ****         }
 265:Middlewares/Third_Party/RealThread_RTOS_RT-Thread/src/kservice.c **** 
 266:Middlewares/Third_Party/RealThread_RTOS_RT-Thread/src/kservice.c ****         /* Pick up any residual with a byte copier. */
 267:Middlewares/Third_Party/RealThread_RTOS_RT-Thread/src/kservice.c ****         dst_ptr = (char *)aligned_dst;
 268:Middlewares/Third_Party/RealThread_RTOS_RT-Thread/src/kservice.c ****         src_ptr = (char *)aligned_src;
 269:Middlewares/Third_Party/RealThread_RTOS_RT-Thread/src/kservice.c ****     }
 270:Middlewares/Third_Party/RealThread_RTOS_RT-Thread/src/kservice.c **** 
 271:Middlewares/Third_Party/RealThread_RTOS_RT-Thread/src/kservice.c ****     while (len--)
 272:Middlewares/Third_Party/RealThread_RTOS_RT-Thread/src/kservice.c ****         *dst_ptr++ = *src_ptr++;
 273:Middlewares/Third_Party/RealThread_RTOS_RT-Thread/src/kservice.c **** 
 274:Middlewares/Third_Party/RealThread_RTOS_RT-Thread/src/kservice.c ****     return dst;
 275:Middlewares/Third_Party/RealThread_RTOS_RT-Thread/src/kservice.c **** #undef UNALIGNED
 276:Middlewares/Third_Party/RealThread_RTOS_RT-Thread/src/kservice.c **** #undef BIGBLOCKSIZE
 277:Middlewares/Third_Party/RealThread_RTOS_RT-Thread/src/kservice.c **** #undef LITTLEBLOCKSIZE
 278:Middlewares/Third_Party/RealThread_RTOS_RT-Thread/src/kservice.c **** #undef TOO_SMALL
 279:Middlewares/Third_Party/RealThread_RTOS_RT-Thread/src/kservice.c **** #endif
 280:Middlewares/Third_Party/RealThread_RTOS_RT-Thread/src/kservice.c **** }
 281:Middlewares/Third_Party/RealThread_RTOS_RT-Thread/src/kservice.c **** RTM_EXPORT(rt_memcpy);
 282:Middlewares/Third_Party/RealThread_RTOS_RT-Thread/src/kservice.c **** 
 283:Middlewares/Third_Party/RealThread_RTOS_RT-Thread/src/kservice.c **** /**
 284:Middlewares/Third_Party/RealThread_RTOS_RT-Thread/src/kservice.c ****  * This function will move memory content from source address to destination
 285:Middlewares/Third_Party/RealThread_RTOS_RT-Thread/src/kservice.c ****  * address.
 286:Middlewares/Third_Party/RealThread_RTOS_RT-Thread/src/kservice.c ****  *
 287:Middlewares/Third_Party/RealThread_RTOS_RT-Thread/src/kservice.c ****  * @param dest the address of destination memory
 288:Middlewares/Third_Party/RealThread_RTOS_RT-Thread/src/kservice.c ****  * @param src  the address of source memory
 289:Middlewares/Third_Party/RealThread_RTOS_RT-Thread/src/kservice.c ****  * @param n the copied length
 290:Middlewares/Third_Party/RealThread_RTOS_RT-Thread/src/kservice.c ****  *
 291:Middlewares/Third_Party/RealThread_RTOS_RT-Thread/src/kservice.c ****  * @return the address of destination memory
 292:Middlewares/Third_Party/RealThread_RTOS_RT-Thread/src/kservice.c ****  */
 293:Middlewares/Third_Party/RealThread_RTOS_RT-Thread/src/kservice.c **** void *rt_memmove(void *dest, const void *src, rt_ubase_t n)
 294:Middlewares/Third_Party/RealThread_RTOS_RT-Thread/src/kservice.c **** {
 295:Middlewares/Third_Party/RealThread_RTOS_RT-Thread/src/kservice.c ****     char *tmp = (char *)dest, *s = (char *)src;
 296:Middlewares/Third_Party/RealThread_RTOS_RT-Thread/src/kservice.c **** 
 297:Middlewares/Third_Party/RealThread_RTOS_RT-Thread/src/kservice.c ****     if (s < tmp && tmp < s + n)
 298:Middlewares/Third_Party/RealThread_RTOS_RT-Thread/src/kservice.c ****     {
 299:Middlewares/Third_Party/RealThread_RTOS_RT-Thread/src/kservice.c ****         tmp += n;
 300:Middlewares/Third_Party/RealThread_RTOS_RT-Thread/src/kservice.c ****         s += n;
 301:Middlewares/Third_Party/RealThread_RTOS_RT-Thread/src/kservice.c **** 
 302:Middlewares/Third_Party/RealThread_RTOS_RT-Thread/src/kservice.c ****         while (n--)
 303:Middlewares/Third_Party/RealThread_RTOS_RT-Thread/src/kservice.c ****             *(--tmp) = *(--s);
 304:Middlewares/Third_Party/RealThread_RTOS_RT-Thread/src/kservice.c ****     }
 305:Middlewares/Third_Party/RealThread_RTOS_RT-Thread/src/kservice.c ****     else
 306:Middlewares/Third_Party/RealThread_RTOS_RT-Thread/src/kservice.c ****     {
 307:Middlewares/Third_Party/RealThread_RTOS_RT-Thread/src/kservice.c ****         while (n--)
 308:Middlewares/Third_Party/RealThread_RTOS_RT-Thread/src/kservice.c ****             *tmp++ = *s++;
 309:Middlewares/Third_Party/RealThread_RTOS_RT-Thread/src/kservice.c ****     }
 310:Middlewares/Third_Party/RealThread_RTOS_RT-Thread/src/kservice.c **** 
 311:Middlewares/Third_Party/RealThread_RTOS_RT-Thread/src/kservice.c ****     return dest;
 312:Middlewares/Third_Party/RealThread_RTOS_RT-Thread/src/kservice.c **** }
 313:Middlewares/Third_Party/RealThread_RTOS_RT-Thread/src/kservice.c **** RTM_EXPORT(rt_memmove);
 314:Middlewares/Third_Party/RealThread_RTOS_RT-Thread/src/kservice.c **** 
 315:Middlewares/Third_Party/RealThread_RTOS_RT-Thread/src/kservice.c **** /**
 316:Middlewares/Third_Party/RealThread_RTOS_RT-Thread/src/kservice.c ****  * This function will compare two areas of memory
 317:Middlewares/Third_Party/RealThread_RTOS_RT-Thread/src/kservice.c ****  *
ARM GAS  C:\Users\chuti\AppData\Local\Temp\cctMPljw.s 			page 7


 318:Middlewares/Third_Party/RealThread_RTOS_RT-Thread/src/kservice.c ****  * @param cs one area of memory
 319:Middlewares/Third_Party/RealThread_RTOS_RT-Thread/src/kservice.c ****  * @param ct znother area of memory
 320:Middlewares/Third_Party/RealThread_RTOS_RT-Thread/src/kservice.c ****  * @param count the size of the area
 321:Middlewares/Third_Party/RealThread_RTOS_RT-Thread/src/kservice.c ****  *
 322:Middlewares/Third_Party/RealThread_RTOS_RT-Thread/src/kservice.c ****  * @return the result
 323:Middlewares/Third_Party/RealThread_RTOS_RT-Thread/src/kservice.c ****  */
 324:Middlewares/Third_Party/RealThread_RTOS_RT-Thread/src/kservice.c **** rt_int32_t rt_memcmp(const void *cs, const void *ct, rt_ubase_t count)
 325:Middlewares/Third_Party/RealThread_RTOS_RT-Thread/src/kservice.c **** {
 326:Middlewares/Third_Party/RealThread_RTOS_RT-Thread/src/kservice.c ****     const unsigned char *su1, *su2;
 327:Middlewares/Third_Party/RealThread_RTOS_RT-Thread/src/kservice.c ****     int res = 0;
 328:Middlewares/Third_Party/RealThread_RTOS_RT-Thread/src/kservice.c **** 
 329:Middlewares/Third_Party/RealThread_RTOS_RT-Thread/src/kservice.c ****     for (su1 = cs, su2 = ct; 0 < count; ++su1, ++su2, count--)
 330:Middlewares/Third_Party/RealThread_RTOS_RT-Thread/src/kservice.c ****         if ((res = *su1 - *su2) != 0)
 331:Middlewares/Third_Party/RealThread_RTOS_RT-Thread/src/kservice.c ****             break;
 332:Middlewares/Third_Party/RealThread_RTOS_RT-Thread/src/kservice.c **** 
 333:Middlewares/Third_Party/RealThread_RTOS_RT-Thread/src/kservice.c ****     return res;
 334:Middlewares/Third_Party/RealThread_RTOS_RT-Thread/src/kservice.c **** }
 335:Middlewares/Third_Party/RealThread_RTOS_RT-Thread/src/kservice.c **** RTM_EXPORT(rt_memcmp);
 336:Middlewares/Third_Party/RealThread_RTOS_RT-Thread/src/kservice.c **** 
 337:Middlewares/Third_Party/RealThread_RTOS_RT-Thread/src/kservice.c **** /**
 338:Middlewares/Third_Party/RealThread_RTOS_RT-Thread/src/kservice.c ****  * This function will return the first occurrence of a string.
 339:Middlewares/Third_Party/RealThread_RTOS_RT-Thread/src/kservice.c ****  *
 340:Middlewares/Third_Party/RealThread_RTOS_RT-Thread/src/kservice.c ****  * @param s1 the source string
 341:Middlewares/Third_Party/RealThread_RTOS_RT-Thread/src/kservice.c ****  * @param s2 the find string
 342:Middlewares/Third_Party/RealThread_RTOS_RT-Thread/src/kservice.c ****  *
 343:Middlewares/Third_Party/RealThread_RTOS_RT-Thread/src/kservice.c ****  * @return the first occurrence of a s2 in s1, or RT_NULL if no found.
 344:Middlewares/Third_Party/RealThread_RTOS_RT-Thread/src/kservice.c ****  */
 345:Middlewares/Third_Party/RealThread_RTOS_RT-Thread/src/kservice.c **** char *rt_strstr(const char *s1, const char *s2)
 346:Middlewares/Third_Party/RealThread_RTOS_RT-Thread/src/kservice.c **** {
 347:Middlewares/Third_Party/RealThread_RTOS_RT-Thread/src/kservice.c ****     int l1, l2;
 348:Middlewares/Third_Party/RealThread_RTOS_RT-Thread/src/kservice.c **** 
 349:Middlewares/Third_Party/RealThread_RTOS_RT-Thread/src/kservice.c ****     l2 = rt_strlen(s2);
 350:Middlewares/Third_Party/RealThread_RTOS_RT-Thread/src/kservice.c ****     if (!l2)
 351:Middlewares/Third_Party/RealThread_RTOS_RT-Thread/src/kservice.c ****         return (char *)s1;
 352:Middlewares/Third_Party/RealThread_RTOS_RT-Thread/src/kservice.c ****     l1 = rt_strlen(s1);
 353:Middlewares/Third_Party/RealThread_RTOS_RT-Thread/src/kservice.c ****     while (l1 >= l2)
 354:Middlewares/Third_Party/RealThread_RTOS_RT-Thread/src/kservice.c ****     {
 355:Middlewares/Third_Party/RealThread_RTOS_RT-Thread/src/kservice.c ****         l1 --;
 356:Middlewares/Third_Party/RealThread_RTOS_RT-Thread/src/kservice.c ****         if (!rt_memcmp(s1, s2, l2))
 357:Middlewares/Third_Party/RealThread_RTOS_RT-Thread/src/kservice.c ****             return (char *)s1;
 358:Middlewares/Third_Party/RealThread_RTOS_RT-Thread/src/kservice.c ****         s1 ++;
 359:Middlewares/Third_Party/RealThread_RTOS_RT-Thread/src/kservice.c ****     }
 360:Middlewares/Third_Party/RealThread_RTOS_RT-Thread/src/kservice.c **** 
 361:Middlewares/Third_Party/RealThread_RTOS_RT-Thread/src/kservice.c ****     return RT_NULL;
 362:Middlewares/Third_Party/RealThread_RTOS_RT-Thread/src/kservice.c **** }
 363:Middlewares/Third_Party/RealThread_RTOS_RT-Thread/src/kservice.c **** RTM_EXPORT(rt_strstr);
 364:Middlewares/Third_Party/RealThread_RTOS_RT-Thread/src/kservice.c **** 
 365:Middlewares/Third_Party/RealThread_RTOS_RT-Thread/src/kservice.c **** /**
 366:Middlewares/Third_Party/RealThread_RTOS_RT-Thread/src/kservice.c ****  * This function will compare two strings while ignoring differences in case
 367:Middlewares/Third_Party/RealThread_RTOS_RT-Thread/src/kservice.c ****  *
 368:Middlewares/Third_Party/RealThread_RTOS_RT-Thread/src/kservice.c ****  * @param a the string to be compared
 369:Middlewares/Third_Party/RealThread_RTOS_RT-Thread/src/kservice.c ****  * @param b the string to be compared
 370:Middlewares/Third_Party/RealThread_RTOS_RT-Thread/src/kservice.c ****  *
 371:Middlewares/Third_Party/RealThread_RTOS_RT-Thread/src/kservice.c ****  * @return the result
 372:Middlewares/Third_Party/RealThread_RTOS_RT-Thread/src/kservice.c ****  */
 373:Middlewares/Third_Party/RealThread_RTOS_RT-Thread/src/kservice.c **** rt_uint32_t rt_strcasecmp(const char *a, const char *b)
 374:Middlewares/Third_Party/RealThread_RTOS_RT-Thread/src/kservice.c **** {
ARM GAS  C:\Users\chuti\AppData\Local\Temp\cctMPljw.s 			page 8


 375:Middlewares/Third_Party/RealThread_RTOS_RT-Thread/src/kservice.c ****     int ca, cb;
 376:Middlewares/Third_Party/RealThread_RTOS_RT-Thread/src/kservice.c **** 
 377:Middlewares/Third_Party/RealThread_RTOS_RT-Thread/src/kservice.c ****     do
 378:Middlewares/Third_Party/RealThread_RTOS_RT-Thread/src/kservice.c ****     {
 379:Middlewares/Third_Party/RealThread_RTOS_RT-Thread/src/kservice.c ****         ca = *a++ & 0xff;
 380:Middlewares/Third_Party/RealThread_RTOS_RT-Thread/src/kservice.c ****         cb = *b++ & 0xff;
 381:Middlewares/Third_Party/RealThread_RTOS_RT-Thread/src/kservice.c ****         if (ca >= 'A' && ca <= 'Z')
 382:Middlewares/Third_Party/RealThread_RTOS_RT-Thread/src/kservice.c ****             ca += 'a' - 'A';
 383:Middlewares/Third_Party/RealThread_RTOS_RT-Thread/src/kservice.c ****         if (cb >= 'A' && cb <= 'Z')
 384:Middlewares/Third_Party/RealThread_RTOS_RT-Thread/src/kservice.c ****             cb += 'a' - 'A';
 385:Middlewares/Third_Party/RealThread_RTOS_RT-Thread/src/kservice.c ****     }
 386:Middlewares/Third_Party/RealThread_RTOS_RT-Thread/src/kservice.c ****     while (ca == cb && ca != '\0');
 387:Middlewares/Third_Party/RealThread_RTOS_RT-Thread/src/kservice.c **** 
 388:Middlewares/Third_Party/RealThread_RTOS_RT-Thread/src/kservice.c ****     return ca - cb;
 389:Middlewares/Third_Party/RealThread_RTOS_RT-Thread/src/kservice.c **** }
 390:Middlewares/Third_Party/RealThread_RTOS_RT-Thread/src/kservice.c **** RTM_EXPORT(rt_strcasecmp);
 391:Middlewares/Third_Party/RealThread_RTOS_RT-Thread/src/kservice.c **** 
 392:Middlewares/Third_Party/RealThread_RTOS_RT-Thread/src/kservice.c **** /**
 393:Middlewares/Third_Party/RealThread_RTOS_RT-Thread/src/kservice.c ****  * This function will copy string no more than n bytes.
 394:Middlewares/Third_Party/RealThread_RTOS_RT-Thread/src/kservice.c ****  *
 395:Middlewares/Third_Party/RealThread_RTOS_RT-Thread/src/kservice.c ****  * @param dst the string to copy
 396:Middlewares/Third_Party/RealThread_RTOS_RT-Thread/src/kservice.c ****  * @param src the string to be copied
 397:Middlewares/Third_Party/RealThread_RTOS_RT-Thread/src/kservice.c ****  * @param n the maximum copied length
 398:Middlewares/Third_Party/RealThread_RTOS_RT-Thread/src/kservice.c ****  *
 399:Middlewares/Third_Party/RealThread_RTOS_RT-Thread/src/kservice.c ****  * @return the result
 400:Middlewares/Third_Party/RealThread_RTOS_RT-Thread/src/kservice.c ****  */
 401:Middlewares/Third_Party/RealThread_RTOS_RT-Thread/src/kservice.c **** char *rt_strncpy(char *dst, const char *src, rt_ubase_t n)
 402:Middlewares/Third_Party/RealThread_RTOS_RT-Thread/src/kservice.c **** {
 403:Middlewares/Third_Party/RealThread_RTOS_RT-Thread/src/kservice.c ****     if (n != 0)
 404:Middlewares/Third_Party/RealThread_RTOS_RT-Thread/src/kservice.c ****     {
 405:Middlewares/Third_Party/RealThread_RTOS_RT-Thread/src/kservice.c ****         char *d = dst;
 406:Middlewares/Third_Party/RealThread_RTOS_RT-Thread/src/kservice.c ****         const char *s = src;
 407:Middlewares/Third_Party/RealThread_RTOS_RT-Thread/src/kservice.c **** 
 408:Middlewares/Third_Party/RealThread_RTOS_RT-Thread/src/kservice.c ****         do
 409:Middlewares/Third_Party/RealThread_RTOS_RT-Thread/src/kservice.c ****         {
 410:Middlewares/Third_Party/RealThread_RTOS_RT-Thread/src/kservice.c ****             if ((*d++ = *s++) == 0)
 411:Middlewares/Third_Party/RealThread_RTOS_RT-Thread/src/kservice.c ****             {
 412:Middlewares/Third_Party/RealThread_RTOS_RT-Thread/src/kservice.c ****                 /* NUL pad the remaining n-1 bytes */
 413:Middlewares/Third_Party/RealThread_RTOS_RT-Thread/src/kservice.c ****                 while (--n != 0)
 414:Middlewares/Third_Party/RealThread_RTOS_RT-Thread/src/kservice.c ****                     *d++ = 0;
 415:Middlewares/Third_Party/RealThread_RTOS_RT-Thread/src/kservice.c ****                 break;
 416:Middlewares/Third_Party/RealThread_RTOS_RT-Thread/src/kservice.c ****             }
 417:Middlewares/Third_Party/RealThread_RTOS_RT-Thread/src/kservice.c ****         } while (--n != 0);
 418:Middlewares/Third_Party/RealThread_RTOS_RT-Thread/src/kservice.c ****     }
 419:Middlewares/Third_Party/RealThread_RTOS_RT-Thread/src/kservice.c **** 
 420:Middlewares/Third_Party/RealThread_RTOS_RT-Thread/src/kservice.c ****     return (dst);
 421:Middlewares/Third_Party/RealThread_RTOS_RT-Thread/src/kservice.c **** }
 422:Middlewares/Third_Party/RealThread_RTOS_RT-Thread/src/kservice.c **** RTM_EXPORT(rt_strncpy);
 423:Middlewares/Third_Party/RealThread_RTOS_RT-Thread/src/kservice.c **** 
 424:Middlewares/Third_Party/RealThread_RTOS_RT-Thread/src/kservice.c **** /**
 425:Middlewares/Third_Party/RealThread_RTOS_RT-Thread/src/kservice.c ****  * This function will compare two strings with specified maximum length
 426:Middlewares/Third_Party/RealThread_RTOS_RT-Thread/src/kservice.c ****  *
 427:Middlewares/Third_Party/RealThread_RTOS_RT-Thread/src/kservice.c ****  * @param cs the string to be compared
 428:Middlewares/Third_Party/RealThread_RTOS_RT-Thread/src/kservice.c ****  * @param ct the string to be compared
 429:Middlewares/Third_Party/RealThread_RTOS_RT-Thread/src/kservice.c ****  * @param count the maximum compare length
 430:Middlewares/Third_Party/RealThread_RTOS_RT-Thread/src/kservice.c ****  *
 431:Middlewares/Third_Party/RealThread_RTOS_RT-Thread/src/kservice.c ****  * @return the result
ARM GAS  C:\Users\chuti\AppData\Local\Temp\cctMPljw.s 			page 9


 432:Middlewares/Third_Party/RealThread_RTOS_RT-Thread/src/kservice.c ****  */
 433:Middlewares/Third_Party/RealThread_RTOS_RT-Thread/src/kservice.c **** rt_int32_t rt_strncmp(const char *cs, const char *ct, rt_ubase_t count)
 434:Middlewares/Third_Party/RealThread_RTOS_RT-Thread/src/kservice.c **** {
 435:Middlewares/Third_Party/RealThread_RTOS_RT-Thread/src/kservice.c ****     register signed char __res = 0;
 436:Middlewares/Third_Party/RealThread_RTOS_RT-Thread/src/kservice.c **** 
 437:Middlewares/Third_Party/RealThread_RTOS_RT-Thread/src/kservice.c ****     while (count)
 438:Middlewares/Third_Party/RealThread_RTOS_RT-Thread/src/kservice.c ****     {
 439:Middlewares/Third_Party/RealThread_RTOS_RT-Thread/src/kservice.c ****         if ((__res = *cs - *ct++) != 0 || !*cs++)
 440:Middlewares/Third_Party/RealThread_RTOS_RT-Thread/src/kservice.c ****             break;
 441:Middlewares/Third_Party/RealThread_RTOS_RT-Thread/src/kservice.c ****         count --;
 442:Middlewares/Third_Party/RealThread_RTOS_RT-Thread/src/kservice.c ****     }
 443:Middlewares/Third_Party/RealThread_RTOS_RT-Thread/src/kservice.c **** 
 444:Middlewares/Third_Party/RealThread_RTOS_RT-Thread/src/kservice.c ****     return __res;
 445:Middlewares/Third_Party/RealThread_RTOS_RT-Thread/src/kservice.c **** }
 446:Middlewares/Third_Party/RealThread_RTOS_RT-Thread/src/kservice.c **** RTM_EXPORT(rt_strncmp);
 447:Middlewares/Third_Party/RealThread_RTOS_RT-Thread/src/kservice.c **** 
 448:Middlewares/Third_Party/RealThread_RTOS_RT-Thread/src/kservice.c **** /**
 449:Middlewares/Third_Party/RealThread_RTOS_RT-Thread/src/kservice.c ****  * This function will compare two strings without specified length
 450:Middlewares/Third_Party/RealThread_RTOS_RT-Thread/src/kservice.c ****  *
 451:Middlewares/Third_Party/RealThread_RTOS_RT-Thread/src/kservice.c ****  * @param cs the string to be compared
 452:Middlewares/Third_Party/RealThread_RTOS_RT-Thread/src/kservice.c ****  * @param ct the string to be compared
 453:Middlewares/Third_Party/RealThread_RTOS_RT-Thread/src/kservice.c ****  *
 454:Middlewares/Third_Party/RealThread_RTOS_RT-Thread/src/kservice.c ****  * @return the result
 455:Middlewares/Third_Party/RealThread_RTOS_RT-Thread/src/kservice.c ****  */
 456:Middlewares/Third_Party/RealThread_RTOS_RT-Thread/src/kservice.c **** rt_int32_t rt_strcmp(const char *cs, const char *ct)
 457:Middlewares/Third_Party/RealThread_RTOS_RT-Thread/src/kservice.c **** {
 458:Middlewares/Third_Party/RealThread_RTOS_RT-Thread/src/kservice.c ****     while (*cs && *cs == *ct)
 459:Middlewares/Third_Party/RealThread_RTOS_RT-Thread/src/kservice.c ****         cs++, ct++;
 460:Middlewares/Third_Party/RealThread_RTOS_RT-Thread/src/kservice.c **** 
 461:Middlewares/Third_Party/RealThread_RTOS_RT-Thread/src/kservice.c ****     return (*cs - *ct);
 462:Middlewares/Third_Party/RealThread_RTOS_RT-Thread/src/kservice.c **** }
 463:Middlewares/Third_Party/RealThread_RTOS_RT-Thread/src/kservice.c **** RTM_EXPORT(rt_strcmp);
 464:Middlewares/Third_Party/RealThread_RTOS_RT-Thread/src/kservice.c **** 
 465:Middlewares/Third_Party/RealThread_RTOS_RT-Thread/src/kservice.c **** /**
 466:Middlewares/Third_Party/RealThread_RTOS_RT-Thread/src/kservice.c ****  * The  strnlen()  function  returns the number of characters in the
 467:Middlewares/Third_Party/RealThread_RTOS_RT-Thread/src/kservice.c ****  * string pointed to by s, excluding the terminating null byte ('\0'),
 468:Middlewares/Third_Party/RealThread_RTOS_RT-Thread/src/kservice.c ****  * but at most maxlen.  In doing this, strnlen() looks only at the
 469:Middlewares/Third_Party/RealThread_RTOS_RT-Thread/src/kservice.c ****  * first maxlen characters in the string pointed to by s and never
 470:Middlewares/Third_Party/RealThread_RTOS_RT-Thread/src/kservice.c ****  * beyond s+maxlen.
 471:Middlewares/Third_Party/RealThread_RTOS_RT-Thread/src/kservice.c ****  *
 472:Middlewares/Third_Party/RealThread_RTOS_RT-Thread/src/kservice.c ****  * @param s the string
 473:Middlewares/Third_Party/RealThread_RTOS_RT-Thread/src/kservice.c ****  * @param maxlen the max size
 474:Middlewares/Third_Party/RealThread_RTOS_RT-Thread/src/kservice.c ****  * @return the length of string
 475:Middlewares/Third_Party/RealThread_RTOS_RT-Thread/src/kservice.c ****  */
 476:Middlewares/Third_Party/RealThread_RTOS_RT-Thread/src/kservice.c **** rt_size_t rt_strnlen(const char *s, rt_ubase_t maxlen)
 477:Middlewares/Third_Party/RealThread_RTOS_RT-Thread/src/kservice.c **** {
 478:Middlewares/Third_Party/RealThread_RTOS_RT-Thread/src/kservice.c ****     const char *sc;
 479:Middlewares/Third_Party/RealThread_RTOS_RT-Thread/src/kservice.c **** 
 480:Middlewares/Third_Party/RealThread_RTOS_RT-Thread/src/kservice.c ****     for (sc = s; *sc != '\0' && (rt_ubase_t)(sc - s) < maxlen; ++sc) /* nothing */
 481:Middlewares/Third_Party/RealThread_RTOS_RT-Thread/src/kservice.c ****         ;
 482:Middlewares/Third_Party/RealThread_RTOS_RT-Thread/src/kservice.c **** 
 483:Middlewares/Third_Party/RealThread_RTOS_RT-Thread/src/kservice.c ****     return sc - s;
 484:Middlewares/Third_Party/RealThread_RTOS_RT-Thread/src/kservice.c **** }
 485:Middlewares/Third_Party/RealThread_RTOS_RT-Thread/src/kservice.c **** RTM_EXPORT(rt_strnlen);
 486:Middlewares/Third_Party/RealThread_RTOS_RT-Thread/src/kservice.c **** 
 487:Middlewares/Third_Party/RealThread_RTOS_RT-Thread/src/kservice.c **** /**
 488:Middlewares/Third_Party/RealThread_RTOS_RT-Thread/src/kservice.c ****  * This function will return the length of a string, which terminate will
ARM GAS  C:\Users\chuti\AppData\Local\Temp\cctMPljw.s 			page 10


 489:Middlewares/Third_Party/RealThread_RTOS_RT-Thread/src/kservice.c ****  * null character.
 490:Middlewares/Third_Party/RealThread_RTOS_RT-Thread/src/kservice.c ****  *
 491:Middlewares/Third_Party/RealThread_RTOS_RT-Thread/src/kservice.c ****  * @param s the string
 492:Middlewares/Third_Party/RealThread_RTOS_RT-Thread/src/kservice.c ****  *
 493:Middlewares/Third_Party/RealThread_RTOS_RT-Thread/src/kservice.c ****  * @return the length of string
 494:Middlewares/Third_Party/RealThread_RTOS_RT-Thread/src/kservice.c ****  */
 495:Middlewares/Third_Party/RealThread_RTOS_RT-Thread/src/kservice.c **** rt_size_t rt_strlen(const char *s)
 496:Middlewares/Third_Party/RealThread_RTOS_RT-Thread/src/kservice.c **** {
 497:Middlewares/Third_Party/RealThread_RTOS_RT-Thread/src/kservice.c ****     const char *sc;
 498:Middlewares/Third_Party/RealThread_RTOS_RT-Thread/src/kservice.c **** 
 499:Middlewares/Third_Party/RealThread_RTOS_RT-Thread/src/kservice.c ****     for (sc = s; *sc != '\0'; ++sc) /* nothing */
 500:Middlewares/Third_Party/RealThread_RTOS_RT-Thread/src/kservice.c ****         ;
 501:Middlewares/Third_Party/RealThread_RTOS_RT-Thread/src/kservice.c **** 
 502:Middlewares/Third_Party/RealThread_RTOS_RT-Thread/src/kservice.c ****     return sc - s;
 503:Middlewares/Third_Party/RealThread_RTOS_RT-Thread/src/kservice.c **** }
 504:Middlewares/Third_Party/RealThread_RTOS_RT-Thread/src/kservice.c **** RTM_EXPORT(rt_strlen);
 505:Middlewares/Third_Party/RealThread_RTOS_RT-Thread/src/kservice.c **** 
 506:Middlewares/Third_Party/RealThread_RTOS_RT-Thread/src/kservice.c **** #ifdef RT_USING_HEAP
 507:Middlewares/Third_Party/RealThread_RTOS_RT-Thread/src/kservice.c **** /**
 508:Middlewares/Third_Party/RealThread_RTOS_RT-Thread/src/kservice.c ****  * This function will duplicate a string.
 509:Middlewares/Third_Party/RealThread_RTOS_RT-Thread/src/kservice.c ****  *
 510:Middlewares/Third_Party/RealThread_RTOS_RT-Thread/src/kservice.c ****  * @param s the string to be duplicated
 511:Middlewares/Third_Party/RealThread_RTOS_RT-Thread/src/kservice.c ****  *
 512:Middlewares/Third_Party/RealThread_RTOS_RT-Thread/src/kservice.c ****  * @return the duplicated string pointer
 513:Middlewares/Third_Party/RealThread_RTOS_RT-Thread/src/kservice.c ****  */
 514:Middlewares/Third_Party/RealThread_RTOS_RT-Thread/src/kservice.c **** char *rt_strdup(const char *s)
 515:Middlewares/Third_Party/RealThread_RTOS_RT-Thread/src/kservice.c **** {
 516:Middlewares/Third_Party/RealThread_RTOS_RT-Thread/src/kservice.c ****     rt_size_t len = rt_strlen(s) + 1;
 517:Middlewares/Third_Party/RealThread_RTOS_RT-Thread/src/kservice.c ****     char *tmp = (char *)rt_malloc(len);
 518:Middlewares/Third_Party/RealThread_RTOS_RT-Thread/src/kservice.c **** 
 519:Middlewares/Third_Party/RealThread_RTOS_RT-Thread/src/kservice.c ****     if (!tmp)
 520:Middlewares/Third_Party/RealThread_RTOS_RT-Thread/src/kservice.c ****         return RT_NULL;
 521:Middlewares/Third_Party/RealThread_RTOS_RT-Thread/src/kservice.c **** 
 522:Middlewares/Third_Party/RealThread_RTOS_RT-Thread/src/kservice.c ****     rt_memcpy(tmp, s, len);
 523:Middlewares/Third_Party/RealThread_RTOS_RT-Thread/src/kservice.c **** 
 524:Middlewares/Third_Party/RealThread_RTOS_RT-Thread/src/kservice.c ****     return tmp;
 525:Middlewares/Third_Party/RealThread_RTOS_RT-Thread/src/kservice.c **** }
 526:Middlewares/Third_Party/RealThread_RTOS_RT-Thread/src/kservice.c **** RTM_EXPORT(rt_strdup);
 527:Middlewares/Third_Party/RealThread_RTOS_RT-Thread/src/kservice.c **** #if defined(__CC_ARM) || defined(__CLANG_ARM)
 528:Middlewares/Third_Party/RealThread_RTOS_RT-Thread/src/kservice.c **** char *strdup(const char *s) __attribute__((alias("rt_strdup")));
 529:Middlewares/Third_Party/RealThread_RTOS_RT-Thread/src/kservice.c **** #endif
 530:Middlewares/Third_Party/RealThread_RTOS_RT-Thread/src/kservice.c **** #endif
 531:Middlewares/Third_Party/RealThread_RTOS_RT-Thread/src/kservice.c **** 
 532:Middlewares/Third_Party/RealThread_RTOS_RT-Thread/src/kservice.c **** /**
 533:Middlewares/Third_Party/RealThread_RTOS_RT-Thread/src/kservice.c ****  * This function will show the version of rt-thread rtos
 534:Middlewares/Third_Party/RealThread_RTOS_RT-Thread/src/kservice.c ****  */
 535:Middlewares/Third_Party/RealThread_RTOS_RT-Thread/src/kservice.c **** void rt_show_version(void)
 536:Middlewares/Third_Party/RealThread_RTOS_RT-Thread/src/kservice.c **** {
 537:Middlewares/Third_Party/RealThread_RTOS_RT-Thread/src/kservice.c ****     rt_kprintf("\n \\ | /\n");
 538:Middlewares/Third_Party/RealThread_RTOS_RT-Thread/src/kservice.c ****     rt_kprintf("- RT -     Thread Operating System\n");
 539:Middlewares/Third_Party/RealThread_RTOS_RT-Thread/src/kservice.c ****     rt_kprintf(" / | \\     %d.%d.%d build %s\n",
 540:Middlewares/Third_Party/RealThread_RTOS_RT-Thread/src/kservice.c ****                RT_VERSION, RT_SUBVERSION, RT_REVISION, __DATE__);
 541:Middlewares/Third_Party/RealThread_RTOS_RT-Thread/src/kservice.c ****     rt_kprintf(" 2006 - 2019 Copyright by rt-thread team\n");
 542:Middlewares/Third_Party/RealThread_RTOS_RT-Thread/src/kservice.c **** }
 543:Middlewares/Third_Party/RealThread_RTOS_RT-Thread/src/kservice.c **** RTM_EXPORT(rt_show_version);
 544:Middlewares/Third_Party/RealThread_RTOS_RT-Thread/src/kservice.c **** 
 545:Middlewares/Third_Party/RealThread_RTOS_RT-Thread/src/kservice.c **** /* private function */
ARM GAS  C:\Users\chuti\AppData\Local\Temp\cctMPljw.s 			page 11


 546:Middlewares/Third_Party/RealThread_RTOS_RT-Thread/src/kservice.c **** #define isdigit(c)  ((unsigned)((c) - '0') < 10)
 547:Middlewares/Third_Party/RealThread_RTOS_RT-Thread/src/kservice.c **** 
 548:Middlewares/Third_Party/RealThread_RTOS_RT-Thread/src/kservice.c **** #ifdef RT_PRINTF_LONGLONG
 549:Middlewares/Third_Party/RealThread_RTOS_RT-Thread/src/kservice.c **** rt_inline int divide(long long *n, int base)
 550:Middlewares/Third_Party/RealThread_RTOS_RT-Thread/src/kservice.c **** {
 551:Middlewares/Third_Party/RealThread_RTOS_RT-Thread/src/kservice.c ****     int res;
 552:Middlewares/Third_Party/RealThread_RTOS_RT-Thread/src/kservice.c **** 
 553:Middlewares/Third_Party/RealThread_RTOS_RT-Thread/src/kservice.c ****     /* optimized for processor which does not support divide instructions. */
 554:Middlewares/Third_Party/RealThread_RTOS_RT-Thread/src/kservice.c ****     if (base == 10)
 555:Middlewares/Third_Party/RealThread_RTOS_RT-Thread/src/kservice.c ****     {
 556:Middlewares/Third_Party/RealThread_RTOS_RT-Thread/src/kservice.c ****         res = (int)(((unsigned long long)*n) % 10U);
 557:Middlewares/Third_Party/RealThread_RTOS_RT-Thread/src/kservice.c ****         *n = (long long)(((unsigned long long)*n) / 10U);
 558:Middlewares/Third_Party/RealThread_RTOS_RT-Thread/src/kservice.c ****     }
 559:Middlewares/Third_Party/RealThread_RTOS_RT-Thread/src/kservice.c ****     else
 560:Middlewares/Third_Party/RealThread_RTOS_RT-Thread/src/kservice.c ****     {
 561:Middlewares/Third_Party/RealThread_RTOS_RT-Thread/src/kservice.c ****         res = (int)(((unsigned long long)*n) % 16U);
 562:Middlewares/Third_Party/RealThread_RTOS_RT-Thread/src/kservice.c ****         *n = (long long)(((unsigned long long)*n) / 16U);
 563:Middlewares/Third_Party/RealThread_RTOS_RT-Thread/src/kservice.c ****     }
 564:Middlewares/Third_Party/RealThread_RTOS_RT-Thread/src/kservice.c **** 
 565:Middlewares/Third_Party/RealThread_RTOS_RT-Thread/src/kservice.c ****     return res;
 566:Middlewares/Third_Party/RealThread_RTOS_RT-Thread/src/kservice.c **** }
 567:Middlewares/Third_Party/RealThread_RTOS_RT-Thread/src/kservice.c **** #else
 568:Middlewares/Third_Party/RealThread_RTOS_RT-Thread/src/kservice.c **** rt_inline int divide(long *n, int base)
 569:Middlewares/Third_Party/RealThread_RTOS_RT-Thread/src/kservice.c **** {
 570:Middlewares/Third_Party/RealThread_RTOS_RT-Thread/src/kservice.c ****     int res;
 571:Middlewares/Third_Party/RealThread_RTOS_RT-Thread/src/kservice.c **** 
 572:Middlewares/Third_Party/RealThread_RTOS_RT-Thread/src/kservice.c ****     /* optimized for processor which does not support divide instructions. */
 573:Middlewares/Third_Party/RealThread_RTOS_RT-Thread/src/kservice.c ****     if (base == 10)
 574:Middlewares/Third_Party/RealThread_RTOS_RT-Thread/src/kservice.c ****     {
 575:Middlewares/Third_Party/RealThread_RTOS_RT-Thread/src/kservice.c ****         res = (int)(((unsigned long)*n) % 10U);
 576:Middlewares/Third_Party/RealThread_RTOS_RT-Thread/src/kservice.c ****         *n = (long)(((unsigned long)*n) / 10U);
 577:Middlewares/Third_Party/RealThread_RTOS_RT-Thread/src/kservice.c ****     }
 578:Middlewares/Third_Party/RealThread_RTOS_RT-Thread/src/kservice.c ****     else
 579:Middlewares/Third_Party/RealThread_RTOS_RT-Thread/src/kservice.c ****     {
 580:Middlewares/Third_Party/RealThread_RTOS_RT-Thread/src/kservice.c ****         res = (int)(((unsigned long)*n) % 16U);
 581:Middlewares/Third_Party/RealThread_RTOS_RT-Thread/src/kservice.c ****         *n = (long)(((unsigned long)*n) / 16U);
 582:Middlewares/Third_Party/RealThread_RTOS_RT-Thread/src/kservice.c ****     }
 583:Middlewares/Third_Party/RealThread_RTOS_RT-Thread/src/kservice.c **** 
 584:Middlewares/Third_Party/RealThread_RTOS_RT-Thread/src/kservice.c ****     return res;
 585:Middlewares/Third_Party/RealThread_RTOS_RT-Thread/src/kservice.c **** }
 586:Middlewares/Third_Party/RealThread_RTOS_RT-Thread/src/kservice.c **** #endif
 587:Middlewares/Third_Party/RealThread_RTOS_RT-Thread/src/kservice.c **** 
 588:Middlewares/Third_Party/RealThread_RTOS_RT-Thread/src/kservice.c **** rt_inline int skip_atoi(const char **s)
 589:Middlewares/Third_Party/RealThread_RTOS_RT-Thread/src/kservice.c **** {
 590:Middlewares/Third_Party/RealThread_RTOS_RT-Thread/src/kservice.c ****     register int i = 0;
 591:Middlewares/Third_Party/RealThread_RTOS_RT-Thread/src/kservice.c ****     while (isdigit(**s))
 592:Middlewares/Third_Party/RealThread_RTOS_RT-Thread/src/kservice.c ****         i = i * 10 + *((*s)++) - '0';
 593:Middlewares/Third_Party/RealThread_RTOS_RT-Thread/src/kservice.c **** 
 594:Middlewares/Third_Party/RealThread_RTOS_RT-Thread/src/kservice.c ****     return i;
 595:Middlewares/Third_Party/RealThread_RTOS_RT-Thread/src/kservice.c **** }
 596:Middlewares/Third_Party/RealThread_RTOS_RT-Thread/src/kservice.c **** 
 597:Middlewares/Third_Party/RealThread_RTOS_RT-Thread/src/kservice.c **** #define ZEROPAD     (1 << 0)    /* pad with zero */
 598:Middlewares/Third_Party/RealThread_RTOS_RT-Thread/src/kservice.c **** #define SIGN        (1 << 1)    /* unsigned/signed long */
 599:Middlewares/Third_Party/RealThread_RTOS_RT-Thread/src/kservice.c **** #define PLUS        (1 << 2)    /* show plus */
 600:Middlewares/Third_Party/RealThread_RTOS_RT-Thread/src/kservice.c **** #define SPACE       (1 << 3)    /* space if plus */
 601:Middlewares/Third_Party/RealThread_RTOS_RT-Thread/src/kservice.c **** #define LEFT        (1 << 4)    /* left justified */
 602:Middlewares/Third_Party/RealThread_RTOS_RT-Thread/src/kservice.c **** #define SPECIAL     (1 << 5)    /* 0x */
ARM GAS  C:\Users\chuti\AppData\Local\Temp\cctMPljw.s 			page 12


 603:Middlewares/Third_Party/RealThread_RTOS_RT-Thread/src/kservice.c **** #define LARGE       (1 << 6)    /* use 'ABCDEF' instead of 'abcdef' */
 604:Middlewares/Third_Party/RealThread_RTOS_RT-Thread/src/kservice.c **** 
 605:Middlewares/Third_Party/RealThread_RTOS_RT-Thread/src/kservice.c **** #ifdef RT_PRINTF_PRECISION
 606:Middlewares/Third_Party/RealThread_RTOS_RT-Thread/src/kservice.c **** static char *print_number(char *buf,
 607:Middlewares/Third_Party/RealThread_RTOS_RT-Thread/src/kservice.c ****                           char *end,
 608:Middlewares/Third_Party/RealThread_RTOS_RT-Thread/src/kservice.c **** #ifdef RT_PRINTF_LONGLONG
 609:Middlewares/Third_Party/RealThread_RTOS_RT-Thread/src/kservice.c ****                           long long  num,
 610:Middlewares/Third_Party/RealThread_RTOS_RT-Thread/src/kservice.c **** #else
 611:Middlewares/Third_Party/RealThread_RTOS_RT-Thread/src/kservice.c ****                           long  num,
 612:Middlewares/Third_Party/RealThread_RTOS_RT-Thread/src/kservice.c **** #endif
 613:Middlewares/Third_Party/RealThread_RTOS_RT-Thread/src/kservice.c ****                           int   base,
 614:Middlewares/Third_Party/RealThread_RTOS_RT-Thread/src/kservice.c ****                           int   s,
 615:Middlewares/Third_Party/RealThread_RTOS_RT-Thread/src/kservice.c ****                           int   precision,
 616:Middlewares/Third_Party/RealThread_RTOS_RT-Thread/src/kservice.c ****                           int   type)
 617:Middlewares/Third_Party/RealThread_RTOS_RT-Thread/src/kservice.c **** #else
 618:Middlewares/Third_Party/RealThread_RTOS_RT-Thread/src/kservice.c **** static char *print_number(char *buf,
 619:Middlewares/Third_Party/RealThread_RTOS_RT-Thread/src/kservice.c ****                           char *end,
 620:Middlewares/Third_Party/RealThread_RTOS_RT-Thread/src/kservice.c **** #ifdef RT_PRINTF_LONGLONG
 621:Middlewares/Third_Party/RealThread_RTOS_RT-Thread/src/kservice.c ****                           long long  num,
 622:Middlewares/Third_Party/RealThread_RTOS_RT-Thread/src/kservice.c **** #else
 623:Middlewares/Third_Party/RealThread_RTOS_RT-Thread/src/kservice.c ****                           long  num,
 624:Middlewares/Third_Party/RealThread_RTOS_RT-Thread/src/kservice.c **** #endif
 625:Middlewares/Third_Party/RealThread_RTOS_RT-Thread/src/kservice.c ****                           int   base,
 626:Middlewares/Third_Party/RealThread_RTOS_RT-Thread/src/kservice.c ****                           int   s,
 627:Middlewares/Third_Party/RealThread_RTOS_RT-Thread/src/kservice.c ****                           int   type)
 628:Middlewares/Third_Party/RealThread_RTOS_RT-Thread/src/kservice.c **** #endif
 629:Middlewares/Third_Party/RealThread_RTOS_RT-Thread/src/kservice.c **** {
  27              		.loc 1 629 0
  28              		.cfi_startproc
  29              		@ args = 12, pretend = 0, frame = 16
  30              		@ frame_needed = 0, uses_anonymous_args = 0
  31              	.LVL0:
  32 0000 2DE9F047 		push	{r4, r5, r6, r7, r8, r9, r10, lr}
  33              	.LCFI0:
  34              		.cfi_def_cfa_offset 32
  35              		.cfi_offset 4, -32
  36              		.cfi_offset 5, -28
  37              		.cfi_offset 6, -24
  38              		.cfi_offset 7, -20
  39              		.cfi_offset 8, -16
  40              		.cfi_offset 9, -12
  41              		.cfi_offset 10, -8
  42              		.cfi_offset 14, -4
  43 0004 84B0     		sub	sp, sp, #16
  44              	.LCFI1:
  45              		.cfi_def_cfa_offset 48
  46 0006 0D9E     		ldr	r6, [sp, #52]
  47 0008 0E9F     		ldr	r7, [sp, #56]
  48              	.LVL1:
 630:Middlewares/Third_Party/RealThread_RTOS_RT-Thread/src/kservice.c ****     char c, sign;
 631:Middlewares/Third_Party/RealThread_RTOS_RT-Thread/src/kservice.c **** #ifdef RT_PRINTF_LONGLONG
 632:Middlewares/Third_Party/RealThread_RTOS_RT-Thread/src/kservice.c ****     char tmp[32];
 633:Middlewares/Third_Party/RealThread_RTOS_RT-Thread/src/kservice.c **** #else
 634:Middlewares/Third_Party/RealThread_RTOS_RT-Thread/src/kservice.c ****     char tmp[16];
 635:Middlewares/Third_Party/RealThread_RTOS_RT-Thread/src/kservice.c **** #endif
 636:Middlewares/Third_Party/RealThread_RTOS_RT-Thread/src/kservice.c ****     int precision_bak = precision;
 637:Middlewares/Third_Party/RealThread_RTOS_RT-Thread/src/kservice.c ****     const char *digits;
ARM GAS  C:\Users\chuti\AppData\Local\Temp\cctMPljw.s 			page 13


 638:Middlewares/Third_Party/RealThread_RTOS_RT-Thread/src/kservice.c ****     static const char small_digits[] = "0123456789abcdef";
 639:Middlewares/Third_Party/RealThread_RTOS_RT-Thread/src/kservice.c ****     static const char large_digits[] = "0123456789ABCDEF";
 640:Middlewares/Third_Party/RealThread_RTOS_RT-Thread/src/kservice.c ****     register int i;
 641:Middlewares/Third_Party/RealThread_RTOS_RT-Thread/src/kservice.c ****     register int size;
 642:Middlewares/Third_Party/RealThread_RTOS_RT-Thread/src/kservice.c **** 
 643:Middlewares/Third_Party/RealThread_RTOS_RT-Thread/src/kservice.c ****     size = s;
 644:Middlewares/Third_Party/RealThread_RTOS_RT-Thread/src/kservice.c **** 
 645:Middlewares/Third_Party/RealThread_RTOS_RT-Thread/src/kservice.c ****     digits = (type & LARGE) ? large_digits : small_digits;
  49              		.loc 1 645 0
  50 000a 17F0400F 		tst	r7, #64
  51 000e 19D0     		beq	.L34
  52 0010 DFF85081 		ldr	r8, .L45+4
  53              	.L2:
  54              	.LVL2:
 646:Middlewares/Third_Party/RealThread_RTOS_RT-Thread/src/kservice.c ****     if (type & LEFT)
  55              		.loc 1 646 0 discriminator 4
  56 0014 17F0100F 		tst	r7, #16
  57 0018 01D0     		beq	.L3
 647:Middlewares/Third_Party/RealThread_RTOS_RT-Thread/src/kservice.c ****         type &= ~ZEROPAD;
  58              		.loc 1 647 0
  59 001a 27F00107 		bic	r7, r7, #1
  60              	.LVL3:
  61              	.L3:
 648:Middlewares/Third_Party/RealThread_RTOS_RT-Thread/src/kservice.c **** 
 649:Middlewares/Third_Party/RealThread_RTOS_RT-Thread/src/kservice.c ****     c = (type & ZEROPAD) ? '0' : ' ';
  62              		.loc 1 649 0
  63 001e 17F0010F 		tst	r7, #1
  64 0022 12D0     		beq	.L35
  65 0024 4FF0300C 		mov	ip, #48
  66              	.L4:
  67              	.LVL4:
 650:Middlewares/Third_Party/RealThread_RTOS_RT-Thread/src/kservice.c **** 
 651:Middlewares/Third_Party/RealThread_RTOS_RT-Thread/src/kservice.c ****     /* get sign */
 652:Middlewares/Third_Party/RealThread_RTOS_RT-Thread/src/kservice.c ****     sign = 0;
 653:Middlewares/Third_Party/RealThread_RTOS_RT-Thread/src/kservice.c ****     if (type & SIGN)
  68              		.loc 1 653 0 discriminator 4
  69 0028 17F0020F 		tst	r7, #2
  70 002c 14D0     		beq	.L36
 654:Middlewares/Third_Party/RealThread_RTOS_RT-Thread/src/kservice.c ****     {
 655:Middlewares/Third_Party/RealThread_RTOS_RT-Thread/src/kservice.c ****         if (num < 0)
  71              		.loc 1 655 0
  72 002e 002A     		cmp	r2, #0
  73 0030 0EDB     		blt	.L42
 656:Middlewares/Third_Party/RealThread_RTOS_RT-Thread/src/kservice.c ****         {
 657:Middlewares/Third_Party/RealThread_RTOS_RT-Thread/src/kservice.c ****             sign = '-';
 658:Middlewares/Third_Party/RealThread_RTOS_RT-Thread/src/kservice.c ****             num = -num;
 659:Middlewares/Third_Party/RealThread_RTOS_RT-Thread/src/kservice.c ****         }
 660:Middlewares/Third_Party/RealThread_RTOS_RT-Thread/src/kservice.c ****         else if (type & PLUS)
  74              		.loc 1 660 0
  75 0032 17F0040F 		tst	r7, #4
  76 0036 26D1     		bne	.L37
 661:Middlewares/Third_Party/RealThread_RTOS_RT-Thread/src/kservice.c ****             sign = '+';
 662:Middlewares/Third_Party/RealThread_RTOS_RT-Thread/src/kservice.c ****         else if (type & SPACE)
  77              		.loc 1 662 0
  78 0038 17F0080F 		tst	r7, #8
  79 003c 26D1     		bne	.L38
 652:Middlewares/Third_Party/RealThread_RTOS_RT-Thread/src/kservice.c ****     if (type & SIGN)
ARM GAS  C:\Users\chuti\AppData\Local\Temp\cctMPljw.s 			page 14


  80              		.loc 1 652 0
  81 003e 4FF0000E 		mov	lr, #0
  82 0042 0BE0     		b	.L5
  83              	.LVL5:
  84              	.L34:
 645:Middlewares/Third_Party/RealThread_RTOS_RT-Thread/src/kservice.c ****     if (type & LEFT)
  85              		.loc 1 645 0
  86 0044 DFF82081 		ldr	r8, .L45+8
  87 0048 E4E7     		b	.L2
  88              	.LVL6:
  89              	.L35:
 649:Middlewares/Third_Party/RealThread_RTOS_RT-Thread/src/kservice.c **** 
  90              		.loc 1 649 0
  91 004a 4FF0200C 		mov	ip, #32
  92 004e EBE7     		b	.L4
  93              	.LVL7:
  94              	.L42:
 658:Middlewares/Third_Party/RealThread_RTOS_RT-Thread/src/kservice.c ****         }
  95              		.loc 1 658 0
  96 0050 5242     		negs	r2, r2
  97              	.LVL8:
 657:Middlewares/Third_Party/RealThread_RTOS_RT-Thread/src/kservice.c ****             num = -num;
  98              		.loc 1 657 0
  99 0052 4FF02D0E 		mov	lr, #45
 100 0056 01E0     		b	.L5
 101              	.LVL9:
 102              	.L36:
 652:Middlewares/Third_Party/RealThread_RTOS_RT-Thread/src/kservice.c ****     if (type & SIGN)
 103              		.loc 1 652 0
 104 0058 4FF0000E 		mov	lr, #0
 105              	.LVL10:
 106              	.L5:
 663:Middlewares/Third_Party/RealThread_RTOS_RT-Thread/src/kservice.c ****             sign = ' ';
 664:Middlewares/Third_Party/RealThread_RTOS_RT-Thread/src/kservice.c ****     }
 665:Middlewares/Third_Party/RealThread_RTOS_RT-Thread/src/kservice.c **** 
 666:Middlewares/Third_Party/RealThread_RTOS_RT-Thread/src/kservice.c **** #ifdef RT_PRINTF_SPECIAL
 667:Middlewares/Third_Party/RealThread_RTOS_RT-Thread/src/kservice.c ****     if (type & SPECIAL)
 668:Middlewares/Third_Party/RealThread_RTOS_RT-Thread/src/kservice.c ****     {
 669:Middlewares/Third_Party/RealThread_RTOS_RT-Thread/src/kservice.c ****         if (base == 16)
 670:Middlewares/Third_Party/RealThread_RTOS_RT-Thread/src/kservice.c ****             size -= 2;
 671:Middlewares/Third_Party/RealThread_RTOS_RT-Thread/src/kservice.c ****         else if (base == 8)
 672:Middlewares/Third_Party/RealThread_RTOS_RT-Thread/src/kservice.c ****             size--;
 673:Middlewares/Third_Party/RealThread_RTOS_RT-Thread/src/kservice.c ****     }
 674:Middlewares/Third_Party/RealThread_RTOS_RT-Thread/src/kservice.c **** #endif
 675:Middlewares/Third_Party/RealThread_RTOS_RT-Thread/src/kservice.c **** 
 676:Middlewares/Third_Party/RealThread_RTOS_RT-Thread/src/kservice.c ****     i = 0;
 677:Middlewares/Third_Party/RealThread_RTOS_RT-Thread/src/kservice.c ****     if (num == 0)
 107              		.loc 1 677 0
 108 005c A2BB     		cbnz	r2, .L39
 109              	.LVL11:
 678:Middlewares/Third_Party/RealThread_RTOS_RT-Thread/src/kservice.c ****         tmp[i++] = '0';
 110              		.loc 1 678 0
 111 005e 3023     		movs	r3, #48
 112              	.LVL12:
 113 0060 8DF80030 		strb	r3, [sp]
 114 0064 0124     		movs	r4, #1
 115              	.LVL13:
ARM GAS  C:\Users\chuti\AppData\Local\Temp\cctMPljw.s 			page 15


 116              	.L8:
 679:Middlewares/Third_Party/RealThread_RTOS_RT-Thread/src/kservice.c ****     else
 680:Middlewares/Third_Party/RealThread_RTOS_RT-Thread/src/kservice.c ****     {
 681:Middlewares/Third_Party/RealThread_RTOS_RT-Thread/src/kservice.c ****         while (num != 0)
 682:Middlewares/Third_Party/RealThread_RTOS_RT-Thread/src/kservice.c ****             tmp[i++] = digits[divide(&num, base)];
 683:Middlewares/Third_Party/RealThread_RTOS_RT-Thread/src/kservice.c ****     }
 684:Middlewares/Third_Party/RealThread_RTOS_RT-Thread/src/kservice.c **** 
 685:Middlewares/Third_Party/RealThread_RTOS_RT-Thread/src/kservice.c **** #ifdef RT_PRINTF_PRECISION
 686:Middlewares/Third_Party/RealThread_RTOS_RT-Thread/src/kservice.c ****     if (i > precision)
 117              		.loc 1 686 0
 118 0066 B442     		cmp	r4, r6
 119 0068 30DC     		bgt	.L40
 120 006a 3546     		mov	r5, r6
 121              	.L12:
 122              	.LVL14:
 687:Middlewares/Third_Party/RealThread_RTOS_RT-Thread/src/kservice.c ****         precision = i;
 688:Middlewares/Third_Party/RealThread_RTOS_RT-Thread/src/kservice.c ****     size -= precision;
 123              		.loc 1 688 0
 124 006c 0C9A     		ldr	r2, [sp, #48]
 125              	.LVL15:
 126 006e 521B     		subs	r2, r2, r5
 127              	.LVL16:
 689:Middlewares/Third_Party/RealThread_RTOS_RT-Thread/src/kservice.c **** #else
 690:Middlewares/Third_Party/RealThread_RTOS_RT-Thread/src/kservice.c ****     size -= i;
 691:Middlewares/Third_Party/RealThread_RTOS_RT-Thread/src/kservice.c **** #endif
 692:Middlewares/Third_Party/RealThread_RTOS_RT-Thread/src/kservice.c **** 
 693:Middlewares/Third_Party/RealThread_RTOS_RT-Thread/src/kservice.c ****     if (!(type & (ZEROPAD | LEFT)))
 128              		.loc 1 693 0
 129 0070 17F0110F 		tst	r7, #17
 130 0074 36D1     		bne	.L13
 694:Middlewares/Third_Party/RealThread_RTOS_RT-Thread/src/kservice.c ****     {
 695:Middlewares/Third_Party/RealThread_RTOS_RT-Thread/src/kservice.c ****         if ((sign) && (size > 0))
 131              		.loc 1 695 0
 132 0076 BEF1000F 		cmp	lr, #0
 133 007a 02D0     		beq	.L14
 134              		.loc 1 695 0 is_stmt 0 discriminator 1
 135 007c 002A     		cmp	r2, #0
 136 007e 00DD     		ble	.L14
 696:Middlewares/Third_Party/RealThread_RTOS_RT-Thread/src/kservice.c ****             size--;
 137              		.loc 1 696 0 is_stmt 1
 138 0080 013A     		subs	r2, r2, #1
 139              	.LVL17:
 140              	.L14:
 687:Middlewares/Third_Party/RealThread_RTOS_RT-Thread/src/kservice.c ****     size -= precision;
 141              		.loc 1 687 0
 142 0082 1346     		mov	r3, r2
 143 0084 26E0     		b	.L16
 144              	.LVL18:
 145              	.L37:
 661:Middlewares/Third_Party/RealThread_RTOS_RT-Thread/src/kservice.c ****         else if (type & SPACE)
 146              		.loc 1 661 0
 147 0086 4FF02B0E 		mov	lr, #43
 148 008a E7E7     		b	.L5
 149              	.L38:
 663:Middlewares/Third_Party/RealThread_RTOS_RT-Thread/src/kservice.c ****     }
 150              		.loc 1 663 0
 151 008c 4FF0200E 		mov	lr, #32
ARM GAS  C:\Users\chuti\AppData\Local\Temp\cctMPljw.s 			page 16


 152 0090 E4E7     		b	.L5
 153              	.LVL19:
 154              	.L43:
 155              	.LBB8:
 156              	.LBB9:
 575:Middlewares/Third_Party/RealThread_RTOS_RT-Thread/src/kservice.c ****         *n = (long)(((unsigned long)*n) / 10U);
 157              		.loc 1 575 0
 158 0092 334D     		ldr	r5, .L45
 159 0094 A5FB0295 		umull	r9, r5, r5, r2
 160 0098 ED08     		lsrs	r5, r5, #3
 161 009a AA46     		mov	r10, r5
 162 009c 05EB8505 		add	r5, r5, r5, lsl #2
 163 00a0 4FEA4509 		lsl	r9, r5, #1
 164 00a4 A2EB0909 		sub	r9, r2, r9
 165              	.LVL20:
 576:Middlewares/Third_Party/RealThread_RTOS_RT-Thread/src/kservice.c ****     }
 166              		.loc 1 576 0
 167 00a8 5246     		mov	r2, r10
 168              	.LVL21:
 169              	.L10:
 170              	.LBE9:
 171              	.LBE8:
 682:Middlewares/Third_Party/RealThread_RTOS_RT-Thread/src/kservice.c ****     }
 172              		.loc 1 682 0
 173 00aa 18F80990 		ldrb	r9, [r8, r9]	@ zero_extendqisi2
 174 00ae 04AD     		add	r5, sp, #16
 175 00b0 2544     		add	r5, r5, r4
 176 00b2 05F8109C 		strb	r9, [r5, #-16]
 177 00b6 0134     		adds	r4, r4, #1
 178              	.LVL22:
 179              	.L7:
 681:Middlewares/Third_Party/RealThread_RTOS_RT-Thread/src/kservice.c ****             tmp[i++] = digits[divide(&num, base)];
 180              		.loc 1 681 0
 181 00b8 002A     		cmp	r2, #0
 182 00ba D4D0     		beq	.L8
 183              	.LVL23:
 184              	.LBB11:
 185              	.LBB10:
 573:Middlewares/Third_Party/RealThread_RTOS_RT-Thread/src/kservice.c ****     {
 186              		.loc 1 573 0
 187 00bc 0A2B     		cmp	r3, #10
 188 00be E8D0     		beq	.L43
 580:Middlewares/Third_Party/RealThread_RTOS_RT-Thread/src/kservice.c ****         *n = (long)(((unsigned long)*n) / 16U);
 189              		.loc 1 580 0
 190 00c0 02F00F09 		and	r9, r2, #15
 191              	.LVL24:
 581:Middlewares/Third_Party/RealThread_RTOS_RT-Thread/src/kservice.c ****     }
 192              		.loc 1 581 0
 193 00c4 1209     		lsrs	r2, r2, #4
 194              	.LVL25:
 195 00c6 F0E7     		b	.L10
 196              	.LVL26:
 197              	.L39:
 198              	.LBE10:
 199              	.LBE11:
 676:Middlewares/Third_Party/RealThread_RTOS_RT-Thread/src/kservice.c ****     if (num == 0)
 200              		.loc 1 676 0
ARM GAS  C:\Users\chuti\AppData\Local\Temp\cctMPljw.s 			page 17


 201 00c8 0024     		movs	r4, #0
 202 00ca F5E7     		b	.L7
 203              	.LVL27:
 204              	.L40:
 687:Middlewares/Third_Party/RealThread_RTOS_RT-Thread/src/kservice.c ****     size -= precision;
 205              		.loc 1 687 0
 206 00cc 2546     		mov	r5, r4
 207 00ce CDE7     		b	.L12
 208              	.LVL28:
 209              	.L15:
 697:Middlewares/Third_Party/RealThread_RTOS_RT-Thread/src/kservice.c **** 
 698:Middlewares/Third_Party/RealThread_RTOS_RT-Thread/src/kservice.c ****         while (size-- > 0)
 699:Middlewares/Third_Party/RealThread_RTOS_RT-Thread/src/kservice.c ****         {
 700:Middlewares/Third_Party/RealThread_RTOS_RT-Thread/src/kservice.c ****             if (buf < end)
 701:Middlewares/Third_Party/RealThread_RTOS_RT-Thread/src/kservice.c ****                 *buf = ' ';
 702:Middlewares/Third_Party/RealThread_RTOS_RT-Thread/src/kservice.c ****             ++ buf;
 210              		.loc 1 702 0
 211 00d0 0130     		adds	r0, r0, #1
 212              	.LVL29:
 698:Middlewares/Third_Party/RealThread_RTOS_RT-Thread/src/kservice.c ****         {
 213              		.loc 1 698 0
 214 00d2 1346     		mov	r3, r2
 215              	.L16:
 216 00d4 5A1E     		subs	r2, r3, #1
 217              	.LVL30:
 218 00d6 002B     		cmp	r3, #0
 219 00d8 04DD     		ble	.L13
 700:Middlewares/Third_Party/RealThread_RTOS_RT-Thread/src/kservice.c ****                 *buf = ' ';
 220              		.loc 1 700 0
 221 00da 8842     		cmp	r0, r1
 222 00dc F8D2     		bcs	.L15
 701:Middlewares/Third_Party/RealThread_RTOS_RT-Thread/src/kservice.c ****             ++ buf;
 223              		.loc 1 701 0
 224 00de 2023     		movs	r3, #32
 225 00e0 0370     		strb	r3, [r0]
 226 00e2 F5E7     		b	.L15
 227              	.L13:
 703:Middlewares/Third_Party/RealThread_RTOS_RT-Thread/src/kservice.c ****         }
 704:Middlewares/Third_Party/RealThread_RTOS_RT-Thread/src/kservice.c ****     }
 705:Middlewares/Third_Party/RealThread_RTOS_RT-Thread/src/kservice.c **** 
 706:Middlewares/Third_Party/RealThread_RTOS_RT-Thread/src/kservice.c ****     if (sign)
 228              		.loc 1 706 0
 229 00e4 BEF1000F 		cmp	lr, #0
 230 00e8 05D0     		beq	.L18
 707:Middlewares/Third_Party/RealThread_RTOS_RT-Thread/src/kservice.c ****     {
 708:Middlewares/Third_Party/RealThread_RTOS_RT-Thread/src/kservice.c ****         if (buf < end)
 231              		.loc 1 708 0
 232 00ea 8842     		cmp	r0, r1
 233 00ec 01D2     		bcs	.L19
 709:Middlewares/Third_Party/RealThread_RTOS_RT-Thread/src/kservice.c ****         {
 710:Middlewares/Third_Party/RealThread_RTOS_RT-Thread/src/kservice.c ****             *buf = sign;
 234              		.loc 1 710 0
 235 00ee 80F800E0 		strb	lr, [r0]
 236              	.L19:
 711:Middlewares/Third_Party/RealThread_RTOS_RT-Thread/src/kservice.c ****         }
 712:Middlewares/Third_Party/RealThread_RTOS_RT-Thread/src/kservice.c ****         -- size;
 237              		.loc 1 712 0
ARM GAS  C:\Users\chuti\AppData\Local\Temp\cctMPljw.s 			page 18


 238 00f2 013A     		subs	r2, r2, #1
 239              	.LVL31:
 713:Middlewares/Third_Party/RealThread_RTOS_RT-Thread/src/kservice.c ****         ++ buf;
 240              		.loc 1 713 0
 241 00f4 0130     		adds	r0, r0, #1
 242              	.LVL32:
 243              	.L18:
 714:Middlewares/Third_Party/RealThread_RTOS_RT-Thread/src/kservice.c ****     }
 715:Middlewares/Third_Party/RealThread_RTOS_RT-Thread/src/kservice.c **** 
 716:Middlewares/Third_Party/RealThread_RTOS_RT-Thread/src/kservice.c **** #ifdef RT_PRINTF_SPECIAL
 717:Middlewares/Third_Party/RealThread_RTOS_RT-Thread/src/kservice.c ****     if (type & SPECIAL)
 718:Middlewares/Third_Party/RealThread_RTOS_RT-Thread/src/kservice.c ****     {
 719:Middlewares/Third_Party/RealThread_RTOS_RT-Thread/src/kservice.c ****         if (base == 8)
 720:Middlewares/Third_Party/RealThread_RTOS_RT-Thread/src/kservice.c ****         {
 721:Middlewares/Third_Party/RealThread_RTOS_RT-Thread/src/kservice.c ****             if (buf < end)
 722:Middlewares/Third_Party/RealThread_RTOS_RT-Thread/src/kservice.c ****                 *buf = '0';
 723:Middlewares/Third_Party/RealThread_RTOS_RT-Thread/src/kservice.c ****             ++ buf;
 724:Middlewares/Third_Party/RealThread_RTOS_RT-Thread/src/kservice.c ****         }
 725:Middlewares/Third_Party/RealThread_RTOS_RT-Thread/src/kservice.c ****         else if (base == 16)
 726:Middlewares/Third_Party/RealThread_RTOS_RT-Thread/src/kservice.c ****         {
 727:Middlewares/Third_Party/RealThread_RTOS_RT-Thread/src/kservice.c ****             if (buf < end)
 728:Middlewares/Third_Party/RealThread_RTOS_RT-Thread/src/kservice.c ****                 *buf = '0';
 729:Middlewares/Third_Party/RealThread_RTOS_RT-Thread/src/kservice.c ****             ++ buf;
 730:Middlewares/Third_Party/RealThread_RTOS_RT-Thread/src/kservice.c ****             if (buf < end)
 731:Middlewares/Third_Party/RealThread_RTOS_RT-Thread/src/kservice.c ****             {
 732:Middlewares/Third_Party/RealThread_RTOS_RT-Thread/src/kservice.c ****                 *buf = type & LARGE ? 'X' : 'x';
 733:Middlewares/Third_Party/RealThread_RTOS_RT-Thread/src/kservice.c ****             }
 734:Middlewares/Third_Party/RealThread_RTOS_RT-Thread/src/kservice.c ****             ++ buf;
 735:Middlewares/Third_Party/RealThread_RTOS_RT-Thread/src/kservice.c ****         }
 736:Middlewares/Third_Party/RealThread_RTOS_RT-Thread/src/kservice.c ****     }
 737:Middlewares/Third_Party/RealThread_RTOS_RT-Thread/src/kservice.c **** #endif
 738:Middlewares/Third_Party/RealThread_RTOS_RT-Thread/src/kservice.c **** 
 739:Middlewares/Third_Party/RealThread_RTOS_RT-Thread/src/kservice.c ****     /* no align to the left */
 740:Middlewares/Third_Party/RealThread_RTOS_RT-Thread/src/kservice.c ****     if (!(type & LEFT))
 244              		.loc 1 740 0
 245 00f6 17F0100F 		tst	r7, #16
 246 00fa 03D0     		beq	.L20
 247 00fc 1346     		mov	r3, r2
 248 00fe 0BE0     		b	.L25
 249              	.LVL33:
 250              	.L22:
 741:Middlewares/Third_Party/RealThread_RTOS_RT-Thread/src/kservice.c ****     {
 742:Middlewares/Third_Party/RealThread_RTOS_RT-Thread/src/kservice.c ****         while (size-- > 0)
 743:Middlewares/Third_Party/RealThread_RTOS_RT-Thread/src/kservice.c ****         {
 744:Middlewares/Third_Party/RealThread_RTOS_RT-Thread/src/kservice.c ****             if (buf < end)
 745:Middlewares/Third_Party/RealThread_RTOS_RT-Thread/src/kservice.c ****                 *buf = c;
 746:Middlewares/Third_Party/RealThread_RTOS_RT-Thread/src/kservice.c ****             ++ buf;
 251              		.loc 1 746 0
 252 0100 0130     		adds	r0, r0, #1
 253              	.LVL34:
 742:Middlewares/Third_Party/RealThread_RTOS_RT-Thread/src/kservice.c ****         {
 254              		.loc 1 742 0
 255 0102 1A46     		mov	r2, r3
 256              	.LVL35:
 257              	.L20:
 258 0104 531E     		subs	r3, r2, #1
 259              	.LVL36:
ARM GAS  C:\Users\chuti\AppData\Local\Temp\cctMPljw.s 			page 19


 260 0106 002A     		cmp	r2, #0
 261 0108 06DD     		ble	.L25
 744:Middlewares/Third_Party/RealThread_RTOS_RT-Thread/src/kservice.c ****                 *buf = c;
 262              		.loc 1 744 0
 263 010a 8842     		cmp	r0, r1
 264 010c F8D2     		bcs	.L22
 745:Middlewares/Third_Party/RealThread_RTOS_RT-Thread/src/kservice.c ****             ++ buf;
 265              		.loc 1 745 0
 266 010e 80F800C0 		strb	ip, [r0]
 267 0112 F5E7     		b	.L22
 268              	.LVL37:
 269              	.L24:
 747:Middlewares/Third_Party/RealThread_RTOS_RT-Thread/src/kservice.c ****         }
 748:Middlewares/Third_Party/RealThread_RTOS_RT-Thread/src/kservice.c ****     }
 749:Middlewares/Third_Party/RealThread_RTOS_RT-Thread/src/kservice.c **** 
 750:Middlewares/Third_Party/RealThread_RTOS_RT-Thread/src/kservice.c **** #ifdef RT_PRINTF_PRECISION
 751:Middlewares/Third_Party/RealThread_RTOS_RT-Thread/src/kservice.c ****     while (i < precision--)
 752:Middlewares/Third_Party/RealThread_RTOS_RT-Thread/src/kservice.c ****     {
 753:Middlewares/Third_Party/RealThread_RTOS_RT-Thread/src/kservice.c ****         if (buf < end)
 754:Middlewares/Third_Party/RealThread_RTOS_RT-Thread/src/kservice.c ****             *buf = '0';
 755:Middlewares/Third_Party/RealThread_RTOS_RT-Thread/src/kservice.c ****         ++ buf;
 270              		.loc 1 755 0
 271 0114 0130     		adds	r0, r0, #1
 272              	.LVL38:
 751:Middlewares/Third_Party/RealThread_RTOS_RT-Thread/src/kservice.c ****     {
 273              		.loc 1 751 0
 274 0116 1546     		mov	r5, r2
 275              	.LVL39:
 276              	.L25:
 277 0118 6A1E     		subs	r2, r5, #1
 278              	.LVL40:
 279 011a A542     		cmp	r5, r4
 280 011c 06DD     		ble	.L27
 753:Middlewares/Third_Party/RealThread_RTOS_RT-Thread/src/kservice.c ****             *buf = '0';
 281              		.loc 1 753 0
 282 011e 8842     		cmp	r0, r1
 283 0120 F8D2     		bcs	.L24
 754:Middlewares/Third_Party/RealThread_RTOS_RT-Thread/src/kservice.c ****         ++ buf;
 284              		.loc 1 754 0
 285 0122 3025     		movs	r5, #48
 286 0124 0570     		strb	r5, [r0]
 287 0126 F5E7     		b	.L24
 288              	.LVL41:
 289              	.L28:
 756:Middlewares/Third_Party/RealThread_RTOS_RT-Thread/src/kservice.c ****     }
 757:Middlewares/Third_Party/RealThread_RTOS_RT-Thread/src/kservice.c **** #endif
 758:Middlewares/Third_Party/RealThread_RTOS_RT-Thread/src/kservice.c **** 
 759:Middlewares/Third_Party/RealThread_RTOS_RT-Thread/src/kservice.c ****     /* put number in the temporary buffer */
 760:Middlewares/Third_Party/RealThread_RTOS_RT-Thread/src/kservice.c ****     while (i-- > 0 && (precision_bak != 0))
 761:Middlewares/Third_Party/RealThread_RTOS_RT-Thread/src/kservice.c ****     {
 762:Middlewares/Third_Party/RealThread_RTOS_RT-Thread/src/kservice.c ****         if (buf < end)
 763:Middlewares/Third_Party/RealThread_RTOS_RT-Thread/src/kservice.c ****             *buf = tmp[i];
 764:Middlewares/Third_Party/RealThread_RTOS_RT-Thread/src/kservice.c ****         ++ buf;
 290              		.loc 1 764 0
 291 0128 0130     		adds	r0, r0, #1
 292              	.LVL42:
 760:Middlewares/Third_Party/RealThread_RTOS_RT-Thread/src/kservice.c ****     {
ARM GAS  C:\Users\chuti\AppData\Local\Temp\cctMPljw.s 			page 20


 293              		.loc 1 760 0
 294 012a 1446     		mov	r4, r2
 295              	.LVL43:
 296              	.L27:
 297 012c 621E     		subs	r2, r4, #1
 298              	.LVL44:
 299 012e 002C     		cmp	r4, #0
 300 0130 0ADD     		ble	.L32
 760:Middlewares/Third_Party/RealThread_RTOS_RT-Thread/src/kservice.c ****     {
 301              		.loc 1 760 0 is_stmt 0 discriminator 1
 302 0132 4EB1     		cbz	r6, .L32
 762:Middlewares/Third_Party/RealThread_RTOS_RT-Thread/src/kservice.c ****             *buf = tmp[i];
 303              		.loc 1 762 0 is_stmt 1
 304 0134 8842     		cmp	r0, r1
 305 0136 F7D2     		bcs	.L28
 763:Middlewares/Third_Party/RealThread_RTOS_RT-Thread/src/kservice.c ****         ++ buf;
 306              		.loc 1 763 0
 307 0138 04AC     		add	r4, sp, #16
 308 013a 1444     		add	r4, r4, r2
 309 013c 14F8104C 		ldrb	r4, [r4, #-16]	@ zero_extendqisi2
 310 0140 0470     		strb	r4, [r0]
 311 0142 F1E7     		b	.L28
 312              	.LVL45:
 313              	.L31:
 765:Middlewares/Third_Party/RealThread_RTOS_RT-Thread/src/kservice.c ****     }
 766:Middlewares/Third_Party/RealThread_RTOS_RT-Thread/src/kservice.c **** 
 767:Middlewares/Third_Party/RealThread_RTOS_RT-Thread/src/kservice.c ****     while (size-- > 0)
 768:Middlewares/Third_Party/RealThread_RTOS_RT-Thread/src/kservice.c ****     {
 769:Middlewares/Third_Party/RealThread_RTOS_RT-Thread/src/kservice.c ****         if (buf < end)
 770:Middlewares/Third_Party/RealThread_RTOS_RT-Thread/src/kservice.c ****             *buf = ' ';
 771:Middlewares/Third_Party/RealThread_RTOS_RT-Thread/src/kservice.c ****         ++ buf;
 314              		.loc 1 771 0
 315 0144 0130     		adds	r0, r0, #1
 316              	.LVL46:
 767:Middlewares/Third_Party/RealThread_RTOS_RT-Thread/src/kservice.c ****     {
 317              		.loc 1 767 0
 318 0146 1346     		mov	r3, r2
 319              	.LVL47:
 320              	.L32:
 321 0148 5A1E     		subs	r2, r3, #1
 322              	.LVL48:
 323 014a 002B     		cmp	r3, #0
 324 014c 04DD     		ble	.L44
 769:Middlewares/Third_Party/RealThread_RTOS_RT-Thread/src/kservice.c ****             *buf = ' ';
 325              		.loc 1 769 0
 326 014e 8842     		cmp	r0, r1
 327 0150 F8D2     		bcs	.L31
 770:Middlewares/Third_Party/RealThread_RTOS_RT-Thread/src/kservice.c ****         ++ buf;
 328              		.loc 1 770 0
 329 0152 2023     		movs	r3, #32
 330 0154 0370     		strb	r3, [r0]
 331 0156 F5E7     		b	.L31
 332              	.L44:
 772:Middlewares/Third_Party/RealThread_RTOS_RT-Thread/src/kservice.c ****     }
 773:Middlewares/Third_Party/RealThread_RTOS_RT-Thread/src/kservice.c **** 
 774:Middlewares/Third_Party/RealThread_RTOS_RT-Thread/src/kservice.c ****     return buf;
 775:Middlewares/Third_Party/RealThread_RTOS_RT-Thread/src/kservice.c **** }
ARM GAS  C:\Users\chuti\AppData\Local\Temp\cctMPljw.s 			page 21


 333              		.loc 1 775 0
 334 0158 04B0     		add	sp, sp, #16
 335              	.LCFI2:
 336              		.cfi_def_cfa_offset 32
 337              		@ sp needed
 338 015a BDE8F087 		pop	{r4, r5, r6, r7, r8, r9, r10, pc}
 339              	.LVL49:
 340              	.L46:
 341 015e 00BF     		.align	2
 342              	.L45:
 343 0160 CDCCCCCC 		.word	-858993459
 344 0164 00000000 		.word	.LANCHOR0
 345 0168 00000000 		.word	.LANCHOR1
 346              		.cfi_endproc
 347              	.LFE33:
 349              		.section	.text.rt_get_errno,"ax",%progbits
 350              		.align	1
 351              		.global	rt_get_errno
 352              		.syntax unified
 353              		.thumb
 354              		.thumb_func
 355              		.fpu fpv4-sp-d16
 357              	rt_get_errno:
 358              	.LFB15:
  51:Middlewares/Third_Party/RealThread_RTOS_RT-Thread/src/kservice.c ****     rt_thread_t tid;
 359              		.loc 1 51 0
 360              		.cfi_startproc
 361              		@ args = 0, pretend = 0, frame = 0
 362              		@ frame_needed = 0, uses_anonymous_args = 0
 363 0000 08B5     		push	{r3, lr}
 364              	.LCFI3:
 365              		.cfi_def_cfa_offset 8
 366              		.cfi_offset 3, -8
 367              		.cfi_offset 14, -4
  54:Middlewares/Third_Party/RealThread_RTOS_RT-Thread/src/kservice.c ****     {
 368              		.loc 1 54 0
 369 0002 FFF7FEFF 		bl	rt_interrupt_get_nest
 370              	.LVL50:
 371 0006 10B1     		cbz	r0, .L48
  57:Middlewares/Third_Party/RealThread_RTOS_RT-Thread/src/kservice.c ****     }
 372              		.loc 1 57 0
 373 0008 054B     		ldr	r3, .L53
 374 000a 1868     		ldr	r0, [r3]
 375              	.L47:
  65:Middlewares/Third_Party/RealThread_RTOS_RT-Thread/src/kservice.c **** RTM_EXPORT(rt_get_errno);
 376              		.loc 1 65 0
 377 000c 08BD     		pop	{r3, pc}
 378              	.L48:
  60:Middlewares/Third_Party/RealThread_RTOS_RT-Thread/src/kservice.c ****     if (tid == RT_NULL)
 379              		.loc 1 60 0
 380 000e FFF7FEFF 		bl	rt_thread_self
 381              	.LVL51:
  61:Middlewares/Third_Party/RealThread_RTOS_RT-Thread/src/kservice.c ****         return __rt_errno;
 382              		.loc 1 61 0
 383 0012 08B1     		cbz	r0, .L52
  64:Middlewares/Third_Party/RealThread_RTOS_RT-Thread/src/kservice.c **** }
 384              		.loc 1 64 0
ARM GAS  C:\Users\chuti\AppData\Local\Temp\cctMPljw.s 			page 22


 385 0014 006B     		ldr	r0, [r0, #48]
 386              	.LVL52:
 387 0016 F9E7     		b	.L47
 388              	.LVL53:
 389              	.L52:
  62:Middlewares/Third_Party/RealThread_RTOS_RT-Thread/src/kservice.c **** 
 390              		.loc 1 62 0
 391 0018 014B     		ldr	r3, .L53
 392 001a 1868     		ldr	r0, [r3]
 393              	.LVL54:
 394 001c F6E7     		b	.L47
 395              	.L54:
 396 001e 00BF     		.align	2
 397              	.L53:
 398 0020 00000000 		.word	.LANCHOR2
 399              		.cfi_endproc
 400              	.LFE15:
 402              		.section	.text.rt_set_errno,"ax",%progbits
 403              		.align	1
 404              		.global	rt_set_errno
 405              		.syntax unified
 406              		.thumb
 407              		.thumb_func
 408              		.fpu fpv4-sp-d16
 410              	rt_set_errno:
 411              	.LFB16:
  74:Middlewares/Third_Party/RealThread_RTOS_RT-Thread/src/kservice.c ****     rt_thread_t tid;
 412              		.loc 1 74 0
 413              		.cfi_startproc
 414              		@ args = 0, pretend = 0, frame = 0
 415              		@ frame_needed = 0, uses_anonymous_args = 0
 416              	.LVL55:
 417 0000 10B5     		push	{r4, lr}
 418              	.LCFI4:
 419              		.cfi_def_cfa_offset 8
 420              		.cfi_offset 4, -8
 421              		.cfi_offset 14, -4
 422 0002 0446     		mov	r4, r0
  77:Middlewares/Third_Party/RealThread_RTOS_RT-Thread/src/kservice.c ****     {
 423              		.loc 1 77 0
 424 0004 FFF7FEFF 		bl	rt_interrupt_get_nest
 425              	.LVL56:
 426 0008 10B1     		cbz	r0, .L56
  80:Middlewares/Third_Party/RealThread_RTOS_RT-Thread/src/kservice.c **** 
 427              		.loc 1 80 0
 428 000a 054B     		ldr	r3, .L61
 429 000c 1C60     		str	r4, [r3]
 430              	.L55:
  94:Middlewares/Third_Party/RealThread_RTOS_RT-Thread/src/kservice.c **** RTM_EXPORT(rt_set_errno);
 431              		.loc 1 94 0
 432 000e 10BD     		pop	{r4, pc}
 433              	.LVL57:
 434              	.L56:
  85:Middlewares/Third_Party/RealThread_RTOS_RT-Thread/src/kservice.c ****     if (tid == RT_NULL)
 435              		.loc 1 85 0
 436 0010 FFF7FEFF 		bl	rt_thread_self
 437              	.LVL58:
ARM GAS  C:\Users\chuti\AppData\Local\Temp\cctMPljw.s 			page 23


  86:Middlewares/Third_Party/RealThread_RTOS_RT-Thread/src/kservice.c ****     {
 438              		.loc 1 86 0
 439 0014 08B1     		cbz	r0, .L60
  93:Middlewares/Third_Party/RealThread_RTOS_RT-Thread/src/kservice.c **** }
 440              		.loc 1 93 0
 441 0016 0463     		str	r4, [r0, #48]
 442 0018 F9E7     		b	.L55
 443              	.L60:
  88:Middlewares/Third_Party/RealThread_RTOS_RT-Thread/src/kservice.c **** 
 444              		.loc 1 88 0
 445 001a 014B     		ldr	r3, .L61
 446 001c 1C60     		str	r4, [r3]
  90:Middlewares/Third_Party/RealThread_RTOS_RT-Thread/src/kservice.c ****     }
 447              		.loc 1 90 0
 448 001e F6E7     		b	.L55
 449              	.L62:
 450              		.align	2
 451              	.L61:
 452 0020 00000000 		.word	.LANCHOR2
 453              		.cfi_endproc
 454              	.LFE16:
 456              		.section	.text._rt_errno,"ax",%progbits
 457              		.align	1
 458              		.global	_rt_errno
 459              		.syntax unified
 460              		.thumb
 461              		.thumb_func
 462              		.fpu fpv4-sp-d16
 464              	_rt_errno:
 465              	.LFB17:
 103:Middlewares/Third_Party/RealThread_RTOS_RT-Thread/src/kservice.c ****     rt_thread_t tid;
 466              		.loc 1 103 0
 467              		.cfi_startproc
 468              		@ args = 0, pretend = 0, frame = 0
 469              		@ frame_needed = 0, uses_anonymous_args = 0
 470 0000 08B5     		push	{r3, lr}
 471              	.LCFI5:
 472              		.cfi_def_cfa_offset 8
 473              		.cfi_offset 3, -8
 474              		.cfi_offset 14, -4
 106:Middlewares/Third_Party/RealThread_RTOS_RT-Thread/src/kservice.c ****         return (int *)&__rt_errno;
 475              		.loc 1 106 0
 476 0002 FFF7FEFF 		bl	rt_interrupt_get_nest
 477              	.LVL59:
 478 0006 08B1     		cbz	r0, .L68
 107:Middlewares/Third_Party/RealThread_RTOS_RT-Thread/src/kservice.c **** 
 479              		.loc 1 107 0
 480 0008 0448     		ldr	r0, .L69
 481              	.L63:
 114:Middlewares/Third_Party/RealThread_RTOS_RT-Thread/src/kservice.c **** RTM_EXPORT(_rt_errno);
 482              		.loc 1 114 0
 483 000a 08BD     		pop	{r3, pc}
 484              	.L68:
 109:Middlewares/Third_Party/RealThread_RTOS_RT-Thread/src/kservice.c ****     if (tid != RT_NULL)
 485              		.loc 1 109 0
 486 000c FFF7FEFF 		bl	rt_thread_self
 487              	.LVL60:
ARM GAS  C:\Users\chuti\AppData\Local\Temp\cctMPljw.s 			page 24


 110:Middlewares/Third_Party/RealThread_RTOS_RT-Thread/src/kservice.c ****         return (int *) & (tid->error);
 488              		.loc 1 110 0
 489 0010 08B1     		cbz	r0, .L66
 111:Middlewares/Third_Party/RealThread_RTOS_RT-Thread/src/kservice.c **** 
 490              		.loc 1 111 0
 491 0012 3030     		adds	r0, r0, #48
 492              	.LVL61:
 493 0014 F9E7     		b	.L63
 494              	.LVL62:
 495              	.L66:
 113:Middlewares/Third_Party/RealThread_RTOS_RT-Thread/src/kservice.c **** }
 496              		.loc 1 113 0
 497 0016 0148     		ldr	r0, .L69
 498              	.LVL63:
 499 0018 F7E7     		b	.L63
 500              	.L70:
 501 001a 00BF     		.align	2
 502              	.L69:
 503 001c 00000000 		.word	.LANCHOR2
 504              		.cfi_endproc
 505              	.LFE17:
 507              		.section	.text.rt_memset,"ax",%progbits
 508              		.align	1
 509              		.global	rt_memset
 510              		.syntax unified
 511              		.thumb
 512              		.thumb_func
 513              		.fpu fpv4-sp-d16
 515              	rt_memset:
 516              	.LFB18:
 127:Middlewares/Third_Party/RealThread_RTOS_RT-Thread/src/kservice.c **** #ifdef RT_USING_TINY_SIZE
 517              		.loc 1 127 0
 518              		.cfi_startproc
 519              		@ args = 0, pretend = 0, frame = 0
 520              		@ frame_needed = 0, uses_anonymous_args = 0
 521              		@ link register save eliminated.
 522              	.LVL64:
 523 0000 10B4     		push	{r4}
 524              	.LCFI6:
 525              		.cfi_def_cfa_offset 4
 526              		.cfi_offset 4, -4
 527              	.LVL65:
 147:Middlewares/Third_Party/RealThread_RTOS_RT-Thread/src/kservice.c ****     {
 528              		.loc 1 147 0
 529 0002 032A     		cmp	r2, #3
 530 0004 21D9     		bls	.L79
 531 0006 CCB2     		uxtb	r4, r1
 532              	.LVL66:
 147:Middlewares/Third_Party/RealThread_RTOS_RT-Thread/src/kservice.c ****     {
 533              		.loc 1 147 0 is_stmt 0 discriminator 1
 534 0008 10F0030F 		tst	r0, #3
 535 000c 1FD1     		bne	.L80
 536              	.LVL67:
 157:Middlewares/Third_Party/RealThread_RTOS_RT-Thread/src/kservice.c ****             buffer |= (buffer << 16);
 537              		.loc 1 157 0 is_stmt 1
 538 000e 44EA0424 		orr	r4, r4, r4, lsl #8
 539              	.LVL68:
ARM GAS  C:\Users\chuti\AppData\Local\Temp\cctMPljw.s 			page 25


 158:Middlewares/Third_Party/RealThread_RTOS_RT-Thread/src/kservice.c ****         }
 540              		.loc 1 158 0
 541 0012 44EA0444 		orr	r4, r4, r4, lsl #16
 542              	.LVL69:
 150:Middlewares/Third_Party/RealThread_RTOS_RT-Thread/src/kservice.c **** 
 543              		.loc 1 150 0
 544 0016 0346     		mov	r3, r0
 545 0018 05E0     		b	.L73
 546              	.LVL70:
 547              	.L74:
 169:Middlewares/Third_Party/RealThread_RTOS_RT-Thread/src/kservice.c ****             *aligned_addr++ = buffer;
 548              		.loc 1 169 0
 549 001a 1C60     		str	r4, [r3]
 550              	.LVL71:
 170:Middlewares/Third_Party/RealThread_RTOS_RT-Thread/src/kservice.c ****             *aligned_addr++ = buffer;
 551              		.loc 1 170 0
 552 001c 5C60     		str	r4, [r3, #4]
 553              	.LVL72:
 171:Middlewares/Third_Party/RealThread_RTOS_RT-Thread/src/kservice.c ****             *aligned_addr++ = buffer;
 554              		.loc 1 171 0
 555 001e 9C60     		str	r4, [r3, #8]
 556              	.LVL73:
 172:Middlewares/Third_Party/RealThread_RTOS_RT-Thread/src/kservice.c ****             count -= 4 * LBLOCKSIZE;
 557              		.loc 1 172 0
 558 0020 DC60     		str	r4, [r3, #12]
 173:Middlewares/Third_Party/RealThread_RTOS_RT-Thread/src/kservice.c ****         }
 559              		.loc 1 173 0
 560 0022 103A     		subs	r2, r2, #16
 561              	.LVL74:
 172:Middlewares/Third_Party/RealThread_RTOS_RT-Thread/src/kservice.c ****             count -= 4 * LBLOCKSIZE;
 562              		.loc 1 172 0
 563 0024 1033     		adds	r3, r3, #16
 564              	.LVL75:
 565              	.L73:
 167:Middlewares/Third_Party/RealThread_RTOS_RT-Thread/src/kservice.c ****         {
 566              		.loc 1 167 0
 567 0026 0F2A     		cmp	r2, #15
 568 0028 F7D8     		bhi	.L74
 569 002a 02E0     		b	.L75
 570              	.L76:
 571              	.LVL76:
 178:Middlewares/Third_Party/RealThread_RTOS_RT-Thread/src/kservice.c ****             count -= LBLOCKSIZE;
 572              		.loc 1 178 0
 573 002c 1C60     		str	r4, [r3]
 179:Middlewares/Third_Party/RealThread_RTOS_RT-Thread/src/kservice.c ****         }
 574              		.loc 1 179 0
 575 002e 043A     		subs	r2, r2, #4
 576              	.LVL77:
 178:Middlewares/Third_Party/RealThread_RTOS_RT-Thread/src/kservice.c ****             count -= LBLOCKSIZE;
 577              		.loc 1 178 0
 578 0030 0433     		adds	r3, r3, #4
 579              	.LVL78:
 580              	.L75:
 176:Middlewares/Third_Party/RealThread_RTOS_RT-Thread/src/kservice.c ****         {
 581              		.loc 1 176 0
 582 0032 032A     		cmp	r2, #3
 583 0034 FAD8     		bhi	.L76
ARM GAS  C:\Users\chuti\AppData\Local\Temp\cctMPljw.s 			page 26


 584 0036 02E0     		b	.L77
 585              	.LVL79:
 586              	.L78:
 188:Middlewares/Third_Party/RealThread_RTOS_RT-Thread/src/kservice.c ****     }
 587              		.loc 1 188 0
 588 0038 1970     		strb	r1, [r3]
 589 003a 0133     		adds	r3, r3, #1
 590              	.LVL80:
 186:Middlewares/Third_Party/RealThread_RTOS_RT-Thread/src/kservice.c ****     {
 591              		.loc 1 186 0
 592 003c 2246     		mov	r2, r4
 593              	.LVL81:
 594              	.L77:
 595 003e 541E     		subs	r4, r2, #1
 596              	.LVL82:
 597 0040 002A     		cmp	r2, #0
 598 0042 F9D1     		bne	.L78
 197:Middlewares/Third_Party/RealThread_RTOS_RT-Thread/src/kservice.c **** RTM_EXPORT(rt_memset);
 599              		.loc 1 197 0
 600 0044 5DF8044B 		ldr	r4, [sp], #4
 601              	.LCFI7:
 602              		.cfi_remember_state
 603              		.cfi_restore 4
 604              		.cfi_def_cfa_offset 0
 605              	.LVL83:
 606 0048 7047     		bx	lr
 607              	.LVL84:
 608              	.L79:
 609              	.LCFI8:
 610              		.cfi_restore_state
 141:Middlewares/Third_Party/RealThread_RTOS_RT-Thread/src/kservice.c ****     unsigned long buffer;
 611              		.loc 1 141 0
 612 004a 0346     		mov	r3, r0
 613 004c F7E7     		b	.L77
 614              	.LVL85:
 615              	.L80:
 616 004e 0346     		mov	r3, r0
 617 0050 F5E7     		b	.L77
 618              		.cfi_endproc
 619              	.LFE18:
 621              		.section	.text.rt_memcpy,"ax",%progbits
 622              		.align	1
 623              		.global	rt_memcpy
 624              		.syntax unified
 625              		.thumb
 626              		.thumb_func
 627              		.fpu fpv4-sp-d16
 629              	rt_memcpy:
 630              	.LFB19:
 211:Middlewares/Third_Party/RealThread_RTOS_RT-Thread/src/kservice.c **** #ifdef RT_USING_TINY_SIZE
 631              		.loc 1 211 0
 632              		.cfi_startproc
 633              		@ args = 0, pretend = 0, frame = 0
 634              		@ frame_needed = 0, uses_anonymous_args = 0
 635              		@ link register save eliminated.
 636              	.LVL86:
 637 0000 10B4     		push	{r4}
ARM GAS  C:\Users\chuti\AppData\Local\Temp\cctMPljw.s 			page 27


 638              	.LCFI9:
 639              		.cfi_def_cfa_offset 4
 640              		.cfi_offset 4, -4
 641              	.LVL87:
 244:Middlewares/Third_Party/RealThread_RTOS_RT-Thread/src/kservice.c ****     {
 642              		.loc 1 244 0
 643 0002 0F2A     		cmp	r2, #15
 644 0004 29D9     		bls	.L90
 244:Middlewares/Third_Party/RealThread_RTOS_RT-Thread/src/kservice.c ****     {
 645              		.loc 1 244 0 is_stmt 0 discriminator 1
 646 0006 41EA0003 		orr	r3, r1, r0
 647 000a 13F0030F 		tst	r3, #3
 648 000e 0FD0     		beq	.L91
 236:Middlewares/Third_Party/RealThread_RTOS_RT-Thread/src/kservice.c ****     char *src_ptr = (char *)src;
 649              		.loc 1 236 0 is_stmt 1
 650 0010 0346     		mov	r3, r0
 651 0012 1CE0     		b	.L88
 652              	.LVL88:
 653              	.L85:
 252:Middlewares/Third_Party/RealThread_RTOS_RT-Thread/src/kservice.c ****             *aligned_dst++ = *aligned_src++;
 654              		.loc 1 252 0
 655 0014 0C68     		ldr	r4, [r1]
 656 0016 1C60     		str	r4, [r3]
 657              	.LVL89:
 253:Middlewares/Third_Party/RealThread_RTOS_RT-Thread/src/kservice.c ****             *aligned_dst++ = *aligned_src++;
 658              		.loc 1 253 0
 659 0018 4C68     		ldr	r4, [r1, #4]
 660 001a 5C60     		str	r4, [r3, #4]
 661              	.LVL90:
 254:Middlewares/Third_Party/RealThread_RTOS_RT-Thread/src/kservice.c ****             *aligned_dst++ = *aligned_src++;
 662              		.loc 1 254 0
 663 001c 8C68     		ldr	r4, [r1, #8]
 664 001e 9C60     		str	r4, [r3, #8]
 665              	.LVL91:
 255:Middlewares/Third_Party/RealThread_RTOS_RT-Thread/src/kservice.c ****             len -= BIGBLOCKSIZE;
 666              		.loc 1 255 0
 667 0020 CC68     		ldr	r4, [r1, #12]
 668 0022 DC60     		str	r4, [r3, #12]
 256:Middlewares/Third_Party/RealThread_RTOS_RT-Thread/src/kservice.c ****         }
 669              		.loc 1 256 0
 670 0024 103A     		subs	r2, r2, #16
 671              	.LVL92:
 255:Middlewares/Third_Party/RealThread_RTOS_RT-Thread/src/kservice.c ****             len -= BIGBLOCKSIZE;
 672              		.loc 1 255 0
 673 0026 1031     		adds	r1, r1, #16
 674              	.LVL93:
 675 0028 1033     		adds	r3, r3, #16
 676              	.LVL94:
 677              	.L84:
 250:Middlewares/Third_Party/RealThread_RTOS_RT-Thread/src/kservice.c ****         {
 678              		.loc 1 250 0
 679 002a 0F2A     		cmp	r2, #15
 680 002c F2D8     		bhi	.L85
 681 002e 06E0     		b	.L86
 682              	.LVL95:
 683              	.L91:
 246:Middlewares/Third_Party/RealThread_RTOS_RT-Thread/src/kservice.c ****         aligned_src = (long *)src_ptr;
ARM GAS  C:\Users\chuti\AppData\Local\Temp\cctMPljw.s 			page 28


 684              		.loc 1 246 0
 685 0030 0346     		mov	r3, r0
 686 0032 FAE7     		b	.L84
 687              	.LVL96:
 688              	.L87:
 262:Middlewares/Third_Party/RealThread_RTOS_RT-Thread/src/kservice.c ****             len -= LITTLEBLOCKSIZE;
 689              		.loc 1 262 0
 690 0034 0C68     		ldr	r4, [r1]
 691 0036 1C60     		str	r4, [r3]
 263:Middlewares/Third_Party/RealThread_RTOS_RT-Thread/src/kservice.c ****         }
 692              		.loc 1 263 0
 693 0038 043A     		subs	r2, r2, #4
 694              	.LVL97:
 262:Middlewares/Third_Party/RealThread_RTOS_RT-Thread/src/kservice.c ****             len -= LITTLEBLOCKSIZE;
 695              		.loc 1 262 0
 696 003a 0431     		adds	r1, r1, #4
 697              	.LVL98:
 698 003c 0433     		adds	r3, r3, #4
 699              	.LVL99:
 700              	.L86:
 260:Middlewares/Third_Party/RealThread_RTOS_RT-Thread/src/kservice.c ****         {
 701              		.loc 1 260 0
 702 003e 032A     		cmp	r2, #3
 703 0040 F8D8     		bhi	.L87
 704 0042 04E0     		b	.L88
 705              	.LVL100:
 706              	.L89:
 272:Middlewares/Third_Party/RealThread_RTOS_RT-Thread/src/kservice.c **** 
 707              		.loc 1 272 0
 708 0044 0A78     		ldrb	r2, [r1]	@ zero_extendqisi2
 709 0046 1A70     		strb	r2, [r3]
 271:Middlewares/Third_Party/RealThread_RTOS_RT-Thread/src/kservice.c ****         *dst_ptr++ = *src_ptr++;
 710              		.loc 1 271 0
 711 0048 2246     		mov	r2, r4
 272:Middlewares/Third_Party/RealThread_RTOS_RT-Thread/src/kservice.c **** 
 712              		.loc 1 272 0
 713 004a 0131     		adds	r1, r1, #1
 714              	.LVL101:
 715 004c 0133     		adds	r3, r3, #1
 716              	.LVL102:
 717              	.L88:
 271:Middlewares/Third_Party/RealThread_RTOS_RT-Thread/src/kservice.c ****         *dst_ptr++ = *src_ptr++;
 718              		.loc 1 271 0
 719 004e 541E     		subs	r4, r2, #1
 720              	.LVL103:
 721 0050 002A     		cmp	r2, #0
 722 0052 F7D1     		bne	.L89
 280:Middlewares/Third_Party/RealThread_RTOS_RT-Thread/src/kservice.c **** RTM_EXPORT(rt_memcpy);
 723              		.loc 1 280 0
 724 0054 5DF8044B 		ldr	r4, [sp], #4
 725              	.LCFI10:
 726              		.cfi_remember_state
 727              		.cfi_restore 4
 728              		.cfi_def_cfa_offset 0
 729              	.LVL104:
 730 0058 7047     		bx	lr
 731              	.LVL105:
ARM GAS  C:\Users\chuti\AppData\Local\Temp\cctMPljw.s 			page 29


 732              	.L90:
 733              	.LCFI11:
 734              		.cfi_restore_state
 236:Middlewares/Third_Party/RealThread_RTOS_RT-Thread/src/kservice.c ****     char *src_ptr = (char *)src;
 735              		.loc 1 236 0
 736 005a 0346     		mov	r3, r0
 737 005c F7E7     		b	.L88
 738              		.cfi_endproc
 739              	.LFE19:
 741              		.section	.text.rt_memmove,"ax",%progbits
 742              		.align	1
 743              		.global	rt_memmove
 744              		.syntax unified
 745              		.thumb
 746              		.thumb_func
 747              		.fpu fpv4-sp-d16
 749              	rt_memmove:
 750              	.LFB20:
 294:Middlewares/Third_Party/RealThread_RTOS_RT-Thread/src/kservice.c ****     char *tmp = (char *)dest, *s = (char *)src;
 751              		.loc 1 294 0
 752              		.cfi_startproc
 753              		@ args = 0, pretend = 0, frame = 0
 754              		@ frame_needed = 0, uses_anonymous_args = 0
 755              		@ link register save eliminated.
 756              	.LVL106:
 757 0000 10B4     		push	{r4}
 758              	.LCFI12:
 759              		.cfi_def_cfa_offset 4
 760              		.cfi_offset 4, -4
 761              	.LVL107:
 297:Middlewares/Third_Party/RealThread_RTOS_RT-Thread/src/kservice.c ****     {
 762              		.loc 1 297 0
 763 0002 8842     		cmp	r0, r1
 764 0004 18D9     		bls	.L100
 297:Middlewares/Third_Party/RealThread_RTOS_RT-Thread/src/kservice.c ****     {
 765              		.loc 1 297 0 is_stmt 0 discriminator 1
 766 0006 8B18     		adds	r3, r1, r2
 767 0008 8342     		cmp	r3, r0
 768 000a 17D9     		bls	.L101
 299:Middlewares/Third_Party/RealThread_RTOS_RT-Thread/src/kservice.c ****         s += n;
 769              		.loc 1 299 0 is_stmt 1
 770 000c 8118     		adds	r1, r0, r2
 771              	.LVL108:
 302:Middlewares/Third_Party/RealThread_RTOS_RT-Thread/src/kservice.c ****             *(--tmp) = *(--s);
 772              		.loc 1 302 0
 773 000e 04E0     		b	.L95
 774              	.LVL109:
 775              	.L96:
 303:Middlewares/Third_Party/RealThread_RTOS_RT-Thread/src/kservice.c ****     }
 776              		.loc 1 303 0
 777 0010 13F8012D 		ldrb	r2, [r3, #-1]!	@ zero_extendqisi2
 778              	.LVL110:
 779 0014 01F8012D 		strb	r2, [r1, #-1]!
 780              	.LVL111:
 302:Middlewares/Third_Party/RealThread_RTOS_RT-Thread/src/kservice.c ****             *(--tmp) = *(--s);
 781              		.loc 1 302 0
 782 0018 2246     		mov	r2, r4
ARM GAS  C:\Users\chuti\AppData\Local\Temp\cctMPljw.s 			page 30


 783              	.LVL112:
 784              	.L95:
 785 001a 541E     		subs	r4, r2, #1
 786              	.LVL113:
 787 001c 002A     		cmp	r2, #0
 788 001e F7D1     		bne	.L96
 789 0020 07E0     		b	.L97
 790              	.LVL114:
 791              	.L99:
 308:Middlewares/Third_Party/RealThread_RTOS_RT-Thread/src/kservice.c ****     }
 792              		.loc 1 308 0
 793 0022 0A78     		ldrb	r2, [r1]	@ zero_extendqisi2
 794 0024 1A70     		strb	r2, [r3]
 795 0026 0131     		adds	r1, r1, #1
 796              	.LVL115:
 797 0028 0133     		adds	r3, r3, #1
 798              	.LVL116:
 307:Middlewares/Third_Party/RealThread_RTOS_RT-Thread/src/kservice.c ****             *tmp++ = *s++;
 799              		.loc 1 307 0
 800 002a 2246     		mov	r2, r4
 801              	.LVL117:
 802              	.L98:
 803 002c 541E     		subs	r4, r2, #1
 804              	.LVL118:
 805 002e 002A     		cmp	r2, #0
 806 0030 F7D1     		bne	.L99
 807              	.LVL119:
 808              	.L97:
 312:Middlewares/Third_Party/RealThread_RTOS_RT-Thread/src/kservice.c **** RTM_EXPORT(rt_memmove);
 809              		.loc 1 312 0
 810 0032 5DF8044B 		ldr	r4, [sp], #4
 811              	.LCFI13:
 812              		.cfi_remember_state
 813              		.cfi_restore 4
 814              		.cfi_def_cfa_offset 0
 815              	.LVL120:
 816 0036 7047     		bx	lr
 817              	.LVL121:
 818              	.L100:
 819              	.LCFI14:
 820              		.cfi_restore_state
 821 0038 0346     		mov	r3, r0
 822 003a F7E7     		b	.L98
 823              	.L101:
 824 003c 0346     		mov	r3, r0
 825 003e F5E7     		b	.L98
 826              		.cfi_endproc
 827              	.LFE20:
 829              		.section	.text.rt_memcmp,"ax",%progbits
 830              		.align	1
 831              		.global	rt_memcmp
 832              		.syntax unified
 833              		.thumb
 834              		.thumb_func
 835              		.fpu fpv4-sp-d16
 837              	rt_memcmp:
 838              	.LFB21:
ARM GAS  C:\Users\chuti\AppData\Local\Temp\cctMPljw.s 			page 31


 325:Middlewares/Third_Party/RealThread_RTOS_RT-Thread/src/kservice.c ****     const unsigned char *su1, *su2;
 839              		.loc 1 325 0
 840              		.cfi_startproc
 841              		@ args = 0, pretend = 0, frame = 0
 842              		@ frame_needed = 0, uses_anonymous_args = 0
 843              		@ link register save eliminated.
 844              	.LVL122:
 327:Middlewares/Third_Party/RealThread_RTOS_RT-Thread/src/kservice.c **** 
 845              		.loc 1 327 0
 846 0000 0023     		movs	r3, #0
 847              	.LVL123:
 329:Middlewares/Third_Party/RealThread_RTOS_RT-Thread/src/kservice.c ****         if ((res = *su1 - *su2) != 0)
 848              		.loc 1 329 0
 849 0002 6AB1     		cbz	r2, .L111
 325:Middlewares/Third_Party/RealThread_RTOS_RT-Thread/src/kservice.c ****     const unsigned char *su1, *su2;
 850              		.loc 1 325 0
 851 0004 10B4     		push	{r4}
 852              	.LCFI15:
 853              		.cfi_def_cfa_offset 4
 854              		.cfi_offset 4, -4
 855              	.LVL124:
 856              	.L106:
 330:Middlewares/Third_Party/RealThread_RTOS_RT-Thread/src/kservice.c ****             break;
 857              		.loc 1 330 0
 858 0006 0378     		ldrb	r3, [r0]	@ zero_extendqisi2
 859              	.LVL125:
 860 0008 0C78     		ldrb	r4, [r1]	@ zero_extendqisi2
 861              	.LVL126:
 862 000a 1B1B     		subs	r3, r3, r4
 863              	.LVL127:
 864 000c 04D1     		bne	.L103
 329:Middlewares/Third_Party/RealThread_RTOS_RT-Thread/src/kservice.c ****         if ((res = *su1 - *su2) != 0)
 865              		.loc 1 329 0 discriminator 2
 866 000e 0130     		adds	r0, r0, #1
 867              	.LVL128:
 868 0010 0131     		adds	r1, r1, #1
 869              	.LVL129:
 870 0012 013A     		subs	r2, r2, #1
 871              	.LVL130:
 872 0014 002A     		cmp	r2, #0
 873 0016 F6D1     		bne	.L106
 874              	.LVL131:
 875              	.L103:
 334:Middlewares/Third_Party/RealThread_RTOS_RT-Thread/src/kservice.c **** RTM_EXPORT(rt_memcmp);
 876              		.loc 1 334 0
 877 0018 1846     		mov	r0, r3
 878              	.LVL132:
 879 001a 5DF8044B 		ldr	r4, [sp], #4
 880              	.LCFI16:
 881              		.cfi_restore 4
 882              		.cfi_def_cfa_offset 0
 883 001e 7047     		bx	lr
 884              	.LVL133:
 885              	.L111:
 886 0020 1846     		mov	r0, r3
 887              	.LVL134:
 888 0022 7047     		bx	lr
ARM GAS  C:\Users\chuti\AppData\Local\Temp\cctMPljw.s 			page 32


 889              		.cfi_endproc
 890              	.LFE21:
 892              		.section	.text.rt_strcasecmp,"ax",%progbits
 893              		.align	1
 894              		.global	rt_strcasecmp
 895              		.syntax unified
 896              		.thumb
 897              		.thumb_func
 898              		.fpu fpv4-sp-d16
 900              	rt_strcasecmp:
 901              	.LFB23:
 374:Middlewares/Third_Party/RealThread_RTOS_RT-Thread/src/kservice.c ****     int ca, cb;
 902              		.loc 1 374 0
 903              		.cfi_startproc
 904              		@ args = 0, pretend = 0, frame = 0
 905              		@ frame_needed = 0, uses_anonymous_args = 0
 906              		@ link register save eliminated.
 907              	.LVL135:
 908 0000 70B4     		push	{r4, r5, r6}
 909              	.LCFI17:
 910              		.cfi_def_cfa_offset 12
 911              		.cfi_offset 4, -12
 912              		.cfi_offset 5, -8
 913              		.cfi_offset 6, -4
 914 0002 04E0     		b	.L116
 915              	.LVL136:
 916              	.L114:
 386:Middlewares/Third_Party/RealThread_RTOS_RT-Thread/src/kservice.c **** 
 917              		.loc 1 386 0
 918 0004 A342     		cmp	r3, r4
 919 0006 13D1     		bne	.L115
 379:Middlewares/Third_Party/RealThread_RTOS_RT-Thread/src/kservice.c ****         cb = *b++ & 0xff;
 920              		.loc 1 379 0 discriminator 1
 921 0008 3046     		mov	r0, r6
 380:Middlewares/Third_Party/RealThread_RTOS_RT-Thread/src/kservice.c ****         if (ca >= 'A' && ca <= 'Z')
 922              		.loc 1 380 0 discriminator 1
 923 000a 2946     		mov	r1, r5
 386:Middlewares/Third_Party/RealThread_RTOS_RT-Thread/src/kservice.c **** 
 924              		.loc 1 386 0 discriminator 1
 925 000c 83B1     		cbz	r3, .L115
 926              	.LVL137:
 927              	.L116:
 379:Middlewares/Third_Party/RealThread_RTOS_RT-Thread/src/kservice.c ****         cb = *b++ & 0xff;
 928              		.loc 1 379 0
 929 000e 461C     		adds	r6, r0, #1
 930              	.LVL138:
 931 0010 0378     		ldrb	r3, [r0]	@ zero_extendqisi2
 932              	.LVL139:
 380:Middlewares/Third_Party/RealThread_RTOS_RT-Thread/src/kservice.c ****         if (ca >= 'A' && ca <= 'Z')
 933              		.loc 1 380 0
 934 0012 4D1C     		adds	r5, r1, #1
 935              	.LVL140:
 936 0014 0A78     		ldrb	r2, [r1]	@ zero_extendqisi2
 937 0016 1446     		mov	r4, r2
 938              	.LVL141:
 381:Middlewares/Third_Party/RealThread_RTOS_RT-Thread/src/kservice.c ****             ca += 'a' - 'A';
 939              		.loc 1 381 0
ARM GAS  C:\Users\chuti\AppData\Local\Temp\cctMPljw.s 			page 33


 940 0018 A3F14101 		sub	r1, r3, #65
 941 001c 1929     		cmp	r1, #25
 942 001e 00D8     		bhi	.L113
 382:Middlewares/Third_Party/RealThread_RTOS_RT-Thread/src/kservice.c ****         if (cb >= 'A' && cb <= 'Z')
 943              		.loc 1 382 0
 944 0020 2033     		adds	r3, r3, #32
 945              	.LVL142:
 946              	.L113:
 383:Middlewares/Third_Party/RealThread_RTOS_RT-Thread/src/kservice.c ****             cb += 'a' - 'A';
 947              		.loc 1 383 0
 948 0022 A2F14101 		sub	r1, r2, #65
 949 0026 1929     		cmp	r1, #25
 950 0028 ECD8     		bhi	.L114
 384:Middlewares/Third_Party/RealThread_RTOS_RT-Thread/src/kservice.c ****     }
 951              		.loc 1 384 0
 952 002a 02F12004 		add	r4, r2, #32
 953              	.LVL143:
 954 002e E9E7     		b	.L114
 955              	.L115:
 389:Middlewares/Third_Party/RealThread_RTOS_RT-Thread/src/kservice.c **** RTM_EXPORT(rt_strcasecmp);
 956              		.loc 1 389 0
 957 0030 181B     		subs	r0, r3, r4
 958 0032 70BC     		pop	{r4, r5, r6}
 959              	.LCFI18:
 960              		.cfi_restore 6
 961              		.cfi_restore 5
 962              		.cfi_restore 4
 963              		.cfi_def_cfa_offset 0
 964              	.LVL144:
 965 0034 7047     		bx	lr
 966              		.cfi_endproc
 967              	.LFE23:
 969              		.section	.text.rt_strncpy,"ax",%progbits
 970              		.align	1
 971              		.global	rt_strncpy
 972              		.syntax unified
 973              		.thumb
 974              		.thumb_func
 975              		.fpu fpv4-sp-d16
 977              	rt_strncpy:
 978              	.LFB24:
 402:Middlewares/Third_Party/RealThread_RTOS_RT-Thread/src/kservice.c ****     if (n != 0)
 979              		.loc 1 402 0
 980              		.cfi_startproc
 981              		@ args = 0, pretend = 0, frame = 0
 982              		@ frame_needed = 0, uses_anonymous_args = 0
 983              		@ link register save eliminated.
 984              	.LVL145:
 403:Middlewares/Third_Party/RealThread_RTOS_RT-Thread/src/kservice.c ****     {
 985              		.loc 1 403 0
 986 0000 9AB1     		cbz	r2, .L126
 402:Middlewares/Third_Party/RealThread_RTOS_RT-Thread/src/kservice.c ****     if (n != 0)
 987              		.loc 1 402 0
 988 0002 30B4     		push	{r4, r5}
 989              	.LCFI19:
 990              		.cfi_def_cfa_offset 8
 991              		.cfi_offset 4, -8
ARM GAS  C:\Users\chuti\AppData\Local\Temp\cctMPljw.s 			page 34


 992              		.cfi_offset 5, -4
 993 0004 1346     		mov	r3, r2
 994              	.LBB12:
 405:Middlewares/Third_Party/RealThread_RTOS_RT-Thread/src/kservice.c ****         const char *s = src;
 995              		.loc 1 405 0
 996 0006 0446     		mov	r4, r0
 997              	.LVL146:
 998              	.L123:
 410:Middlewares/Third_Party/RealThread_RTOS_RT-Thread/src/kservice.c ****             {
 999              		.loc 1 410 0
 1000 0008 4D1C     		adds	r5, r1, #1
 1001              	.LVL147:
 1002 000a 621C     		adds	r2, r4, #1
 1003              	.LVL148:
 1004 000c 0978     		ldrb	r1, [r1]	@ zero_extendqisi2
 1005 000e 2170     		strb	r1, [r4]
 1006 0010 39B1     		cbz	r1, .L120
 1007              	.LVL149:
 1008 0012 1446     		mov	r4, r2
 1009 0014 2946     		mov	r1, r5
 417:Middlewares/Third_Party/RealThread_RTOS_RT-Thread/src/kservice.c ****     }
 1010              		.loc 1 417 0
 1011 0016 013B     		subs	r3, r3, #1
 1012              	.LVL150:
 1013 0018 F6D1     		bne	.L123
 1014 001a 04E0     		b	.L119
 1015              	.L122:
 1016              	.LVL151:
 414:Middlewares/Third_Party/RealThread_RTOS_RT-Thread/src/kservice.c ****                 break;
 1017              		.loc 1 414 0
 1018 001c 0021     		movs	r1, #0
 1019 001e 1170     		strb	r1, [r2]
 1020 0020 0132     		adds	r2, r2, #1
 1021              	.LVL152:
 1022              	.L120:
 413:Middlewares/Third_Party/RealThread_RTOS_RT-Thread/src/kservice.c ****                     *d++ = 0;
 1023              		.loc 1 413 0
 1024 0022 013B     		subs	r3, r3, #1
 1025              	.LVL153:
 1026 0024 FAD1     		bne	.L122
 1027              	.L119:
 1028              	.LBE12:
 421:Middlewares/Third_Party/RealThread_RTOS_RT-Thread/src/kservice.c **** RTM_EXPORT(rt_strncpy);
 1029              		.loc 1 421 0
 1030 0026 30BC     		pop	{r4, r5}
 1031              	.LCFI20:
 1032              		.cfi_restore 5
 1033              		.cfi_restore 4
 1034              		.cfi_def_cfa_offset 0
 1035              	.LVL154:
 1036 0028 7047     		bx	lr
 1037              	.LVL155:
 1038              	.L126:
 1039 002a 7047     		bx	lr
 1040              		.cfi_endproc
 1041              	.LFE24:
 1043              		.section	.text.rt_strncmp,"ax",%progbits
ARM GAS  C:\Users\chuti\AppData\Local\Temp\cctMPljw.s 			page 35


 1044              		.align	1
 1045              		.global	rt_strncmp
 1046              		.syntax unified
 1047              		.thumb
 1048              		.thumb_func
 1049              		.fpu fpv4-sp-d16
 1051              	rt_strncmp:
 1052              	.LFB25:
 434:Middlewares/Third_Party/RealThread_RTOS_RT-Thread/src/kservice.c ****     register signed char __res = 0;
 1053              		.loc 1 434 0
 1054              		.cfi_startproc
 1055              		@ args = 0, pretend = 0, frame = 0
 1056              		@ frame_needed = 0, uses_anonymous_args = 0
 1057              		@ link register save eliminated.
 1058              	.LVL156:
 435:Middlewares/Third_Party/RealThread_RTOS_RT-Thread/src/kservice.c **** 
 1059              		.loc 1 435 0
 1060 0000 0023     		movs	r3, #0
 1061              	.LVL157:
 437:Middlewares/Third_Party/RealThread_RTOS_RT-Thread/src/kservice.c ****     {
 1062              		.loc 1 437 0
 1063 0002 7AB1     		cbz	r2, .L137
 434:Middlewares/Third_Party/RealThread_RTOS_RT-Thread/src/kservice.c ****     register signed char __res = 0;
 1064              		.loc 1 434 0
 1065 0004 30B4     		push	{r4, r5}
 1066              	.LCFI21:
 1067              		.cfi_def_cfa_offset 8
 1068              		.cfi_offset 4, -8
 1069              		.cfi_offset 5, -4
 1070              	.L132:
 439:Middlewares/Third_Party/RealThread_RTOS_RT-Thread/src/kservice.c ****             break;
 1071              		.loc 1 439 0
 1072 0006 0478     		ldrb	r4, [r0]	@ zero_extendqisi2
 1073 0008 4D1C     		adds	r5, r1, #1
 1074              	.LVL158:
 1075 000a 0B78     		ldrb	r3, [r1]	@ zero_extendqisi2
 1076              	.LVL159:
 1077 000c E31A     		subs	r3, r4, r3
 1078 000e 5BB2     		sxtb	r3, r3
 1079              	.LVL160:
 1080 0010 2BB9     		cbnz	r3, .L131
 439:Middlewares/Third_Party/RealThread_RTOS_RT-Thread/src/kservice.c ****             break;
 1081              		.loc 1 439 0 is_stmt 0 discriminator 1
 1082 0012 0130     		adds	r0, r0, #1
 1083              	.LVL161:
 1084 0014 1CB1     		cbz	r4, .L131
 441:Middlewares/Third_Party/RealThread_RTOS_RT-Thread/src/kservice.c ****     }
 1085              		.loc 1 441 0 is_stmt 1
 1086 0016 013A     		subs	r2, r2, #1
 1087              	.LVL162:
 439:Middlewares/Third_Party/RealThread_RTOS_RT-Thread/src/kservice.c ****             break;
 1088              		.loc 1 439 0
 1089 0018 2946     		mov	r1, r5
 437:Middlewares/Third_Party/RealThread_RTOS_RT-Thread/src/kservice.c ****     {
 1090              		.loc 1 437 0
 1091 001a 002A     		cmp	r2, #0
 1092 001c F3D1     		bne	.L132
ARM GAS  C:\Users\chuti\AppData\Local\Temp\cctMPljw.s 			page 36


 1093              	.L131:
 445:Middlewares/Third_Party/RealThread_RTOS_RT-Thread/src/kservice.c **** RTM_EXPORT(rt_strncmp);
 1094              		.loc 1 445 0
 1095 001e 1846     		mov	r0, r3
 1096              	.LVL163:
 1097 0020 30BC     		pop	{r4, r5}
 1098              	.LCFI22:
 1099              		.cfi_restore 5
 1100              		.cfi_restore 4
 1101              		.cfi_def_cfa_offset 0
 1102              	.LVL164:
 1103 0022 7047     		bx	lr
 1104              	.LVL165:
 1105              	.L137:
 1106 0024 1846     		mov	r0, r3
 1107              	.LVL166:
 1108 0026 7047     		bx	lr
 1109              		.cfi_endproc
 1110              	.LFE25:
 1112              		.section	.text.rt_strcmp,"ax",%progbits
 1113              		.align	1
 1114              		.global	rt_strcmp
 1115              		.syntax unified
 1116              		.thumb
 1117              		.thumb_func
 1118              		.fpu fpv4-sp-d16
 1120              	rt_strcmp:
 1121              	.LFB26:
 457:Middlewares/Third_Party/RealThread_RTOS_RT-Thread/src/kservice.c ****     while (*cs && *cs == *ct)
 1122              		.loc 1 457 0
 1123              		.cfi_startproc
 1124              		@ args = 0, pretend = 0, frame = 0
 1125              		@ frame_needed = 0, uses_anonymous_args = 0
 1126              		@ link register save eliminated.
 1127              	.LVL167:
 458:Middlewares/Third_Party/RealThread_RTOS_RT-Thread/src/kservice.c ****         cs++, ct++;
 1128              		.loc 1 458 0
 1129 0000 01E0     		b	.L139
 1130              	.L141:
 459:Middlewares/Third_Party/RealThread_RTOS_RT-Thread/src/kservice.c **** 
 1131              		.loc 1 459 0
 1132 0002 0130     		adds	r0, r0, #1
 1133              	.LVL168:
 1134 0004 0131     		adds	r1, r1, #1
 1135              	.LVL169:
 1136              	.L139:
 458:Middlewares/Third_Party/RealThread_RTOS_RT-Thread/src/kservice.c ****         cs++, ct++;
 1137              		.loc 1 458 0
 1138 0006 0378     		ldrb	r3, [r0]	@ zero_extendqisi2
 1139 0008 13B1     		cbz	r3, .L140
 458:Middlewares/Third_Party/RealThread_RTOS_RT-Thread/src/kservice.c ****         cs++, ct++;
 1140              		.loc 1 458 0 is_stmt 0 discriminator 1
 1141 000a 0A78     		ldrb	r2, [r1]	@ zero_extendqisi2
 1142 000c 9342     		cmp	r3, r2
 1143 000e F8D0     		beq	.L141
 1144              	.L140:
 461:Middlewares/Third_Party/RealThread_RTOS_RT-Thread/src/kservice.c **** }
ARM GAS  C:\Users\chuti\AppData\Local\Temp\cctMPljw.s 			page 37


 1145              		.loc 1 461 0 is_stmt 1
 1146 0010 0878     		ldrb	r0, [r1]	@ zero_extendqisi2
 1147              	.LVL170:
 462:Middlewares/Third_Party/RealThread_RTOS_RT-Thread/src/kservice.c **** RTM_EXPORT(rt_strcmp);
 1148              		.loc 1 462 0
 1149 0012 181A     		subs	r0, r3, r0
 1150 0014 7047     		bx	lr
 1151              		.cfi_endproc
 1152              	.LFE26:
 1154              		.section	.text.rt_strnlen,"ax",%progbits
 1155              		.align	1
 1156              		.global	rt_strnlen
 1157              		.syntax unified
 1158              		.thumb
 1159              		.thumb_func
 1160              		.fpu fpv4-sp-d16
 1162              	rt_strnlen:
 1163              	.LFB27:
 477:Middlewares/Third_Party/RealThread_RTOS_RT-Thread/src/kservice.c ****     const char *sc;
 1164              		.loc 1 477 0
 1165              		.cfi_startproc
 1166              		@ args = 0, pretend = 0, frame = 0
 1167              		@ frame_needed = 0, uses_anonymous_args = 0
 1168              		@ link register save eliminated.
 1169              	.LVL171:
 480:Middlewares/Third_Party/RealThread_RTOS_RT-Thread/src/kservice.c ****         ;
 1170              		.loc 1 480 0
 1171 0000 0346     		mov	r3, r0
 1172 0002 00E0     		b	.L143
 1173              	.LVL172:
 1174              	.L145:
 480:Middlewares/Third_Party/RealThread_RTOS_RT-Thread/src/kservice.c ****         ;
 1175              		.loc 1 480 0 is_stmt 0 discriminator 4
 1176 0004 0133     		adds	r3, r3, #1
 1177              	.LVL173:
 1178              	.L143:
 480:Middlewares/Third_Party/RealThread_RTOS_RT-Thread/src/kservice.c ****         ;
 1179              		.loc 1 480 0 discriminator 1
 1180 0006 1A78     		ldrb	r2, [r3]	@ zero_extendqisi2
 1181 0008 12B1     		cbz	r2, .L144
 480:Middlewares/Third_Party/RealThread_RTOS_RT-Thread/src/kservice.c ****         ;
 1182              		.loc 1 480 0 discriminator 3
 1183 000a 1A1A     		subs	r2, r3, r0
 1184 000c 8A42     		cmp	r2, r1
 1185 000e F9D3     		bcc	.L145
 1186              	.L144:
 484:Middlewares/Third_Party/RealThread_RTOS_RT-Thread/src/kservice.c **** RTM_EXPORT(rt_strnlen);
 1187              		.loc 1 484 0 is_stmt 1
 1188 0010 181A     		subs	r0, r3, r0
 1189              	.LVL174:
 1190 0012 7047     		bx	lr
 1191              		.cfi_endproc
 1192              	.LFE27:
 1194              		.section	.text.rt_strlen,"ax",%progbits
 1195              		.align	1
 1196              		.global	rt_strlen
 1197              		.syntax unified
ARM GAS  C:\Users\chuti\AppData\Local\Temp\cctMPljw.s 			page 38


 1198              		.thumb
 1199              		.thumb_func
 1200              		.fpu fpv4-sp-d16
 1202              	rt_strlen:
 1203              	.LFB28:
 496:Middlewares/Third_Party/RealThread_RTOS_RT-Thread/src/kservice.c ****     const char *sc;
 1204              		.loc 1 496 0
 1205              		.cfi_startproc
 1206              		@ args = 0, pretend = 0, frame = 0
 1207              		@ frame_needed = 0, uses_anonymous_args = 0
 1208              		@ link register save eliminated.
 1209              	.LVL175:
 499:Middlewares/Third_Party/RealThread_RTOS_RT-Thread/src/kservice.c ****         ;
 1210              		.loc 1 499 0
 1211 0000 0346     		mov	r3, r0
 1212 0002 00E0     		b	.L147
 1213              	.LVL176:
 1214              	.L148:
 499:Middlewares/Third_Party/RealThread_RTOS_RT-Thread/src/kservice.c ****         ;
 1215              		.loc 1 499 0 is_stmt 0 discriminator 3
 1216 0004 0133     		adds	r3, r3, #1
 1217              	.LVL177:
 1218              	.L147:
 499:Middlewares/Third_Party/RealThread_RTOS_RT-Thread/src/kservice.c ****         ;
 1219              		.loc 1 499 0 discriminator 1
 1220 0006 1A78     		ldrb	r2, [r3]	@ zero_extendqisi2
 1221 0008 002A     		cmp	r2, #0
 1222 000a FBD1     		bne	.L148
 503:Middlewares/Third_Party/RealThread_RTOS_RT-Thread/src/kservice.c **** RTM_EXPORT(rt_strlen);
 1223              		.loc 1 503 0 is_stmt 1
 1224 000c 181A     		subs	r0, r3, r0
 1225              	.LVL178:
 1226 000e 7047     		bx	lr
 1227              		.cfi_endproc
 1228              	.LFE28:
 1230              		.section	.text.rt_strstr,"ax",%progbits
 1231              		.align	1
 1232              		.global	rt_strstr
 1233              		.syntax unified
 1234              		.thumb
 1235              		.thumb_func
 1236              		.fpu fpv4-sp-d16
 1238              	rt_strstr:
 1239              	.LFB22:
 346:Middlewares/Third_Party/RealThread_RTOS_RT-Thread/src/kservice.c ****     int l1, l2;
 1240              		.loc 1 346 0
 1241              		.cfi_startproc
 1242              		@ args = 0, pretend = 0, frame = 0
 1243              		@ frame_needed = 0, uses_anonymous_args = 0
 1244              	.LVL179:
 1245 0000 2DE9F041 		push	{r4, r5, r6, r7, r8, lr}
 1246              	.LCFI23:
 1247              		.cfi_def_cfa_offset 24
 1248              		.cfi_offset 4, -24
 1249              		.cfi_offset 5, -20
 1250              		.cfi_offset 6, -16
 1251              		.cfi_offset 7, -12
ARM GAS  C:\Users\chuti\AppData\Local\Temp\cctMPljw.s 			page 39


 1252              		.cfi_offset 8, -8
 1253              		.cfi_offset 14, -4
 1254 0004 0446     		mov	r4, r0
 1255 0006 0F46     		mov	r7, r1
 349:Middlewares/Third_Party/RealThread_RTOS_RT-Thread/src/kservice.c ****     if (!l2)
 1256              		.loc 1 349 0
 1257 0008 0846     		mov	r0, r1
 1258              	.LVL180:
 1259 000a FFF7FEFF 		bl	rt_strlen
 1260              	.LVL181:
 350:Middlewares/Third_Party/RealThread_RTOS_RT-Thread/src/kservice.c ****         return (char *)s1;
 1261              		.loc 1 350 0
 1262 000e 10B9     		cbnz	r0, .L154
 1263              	.LVL182:
 1264              	.L150:
 362:Middlewares/Third_Party/RealThread_RTOS_RT-Thread/src/kservice.c **** RTM_EXPORT(rt_strstr);
 1265              		.loc 1 362 0
 1266 0010 2046     		mov	r0, r4
 1267 0012 BDE8F081 		pop	{r4, r5, r6, r7, r8, pc}
 1268              	.LVL183:
 1269              	.L154:
 1270 0016 0646     		mov	r6, r0
 1271 0018 8046     		mov	r8, r0
 352:Middlewares/Third_Party/RealThread_RTOS_RT-Thread/src/kservice.c ****     while (l1 >= l2)
 1272              		.loc 1 352 0
 1273 001a 2046     		mov	r0, r4
 1274              	.LVL184:
 1275 001c FFF7FEFF 		bl	rt_strlen
 1276              	.LVL185:
 1277 0020 0546     		mov	r5, r0
 1278              	.LVL186:
 1279              	.L151:
 353:Middlewares/Third_Party/RealThread_RTOS_RT-Thread/src/kservice.c ****     {
 1280              		.loc 1 353 0
 1281 0022 4545     		cmp	r5, r8
 1282 0024 09DB     		blt	.L155
 355:Middlewares/Third_Party/RealThread_RTOS_RT-Thread/src/kservice.c ****         if (!rt_memcmp(s1, s2, l2))
 1283              		.loc 1 355 0
 1284 0026 013D     		subs	r5, r5, #1
 1285              	.LVL187:
 356:Middlewares/Third_Party/RealThread_RTOS_RT-Thread/src/kservice.c ****             return (char *)s1;
 1286              		.loc 1 356 0
 1287 0028 3246     		mov	r2, r6
 1288 002a 3946     		mov	r1, r7
 1289 002c 2046     		mov	r0, r4
 1290 002e FFF7FEFF 		bl	rt_memcmp
 1291              	.LVL188:
 1292 0032 0028     		cmp	r0, #0
 1293 0034 ECD0     		beq	.L150
 358:Middlewares/Third_Party/RealThread_RTOS_RT-Thread/src/kservice.c ****     }
 1294              		.loc 1 358 0
 1295 0036 0134     		adds	r4, r4, #1
 1296              	.LVL189:
 1297 0038 F3E7     		b	.L151
 1298              	.L155:
 361:Middlewares/Third_Party/RealThread_RTOS_RT-Thread/src/kservice.c **** }
 1299              		.loc 1 361 0
ARM GAS  C:\Users\chuti\AppData\Local\Temp\cctMPljw.s 			page 40


 1300 003a 0024     		movs	r4, #0
 1301              	.LVL190:
 1302 003c E8E7     		b	.L150
 1303              		.cfi_endproc
 1304              	.LFE22:
 1306              		.section	.text.rt_strdup,"ax",%progbits
 1307              		.align	1
 1308              		.global	rt_strdup
 1309              		.syntax unified
 1310              		.thumb
 1311              		.thumb_func
 1312              		.fpu fpv4-sp-d16
 1314              	rt_strdup:
 1315              	.LFB29:
 515:Middlewares/Third_Party/RealThread_RTOS_RT-Thread/src/kservice.c ****     rt_size_t len = rt_strlen(s) + 1;
 1316              		.loc 1 515 0
 1317              		.cfi_startproc
 1318              		@ args = 0, pretend = 0, frame = 0
 1319              		@ frame_needed = 0, uses_anonymous_args = 0
 1320              	.LVL191:
 1321 0000 70B5     		push	{r4, r5, r6, lr}
 1322              	.LCFI24:
 1323              		.cfi_def_cfa_offset 16
 1324              		.cfi_offset 4, -16
 1325              		.cfi_offset 5, -12
 1326              		.cfi_offset 6, -8
 1327              		.cfi_offset 14, -4
 1328 0002 0646     		mov	r6, r0
 516:Middlewares/Third_Party/RealThread_RTOS_RT-Thread/src/kservice.c ****     char *tmp = (char *)rt_malloc(len);
 1329              		.loc 1 516 0
 1330 0004 FFF7FEFF 		bl	rt_strlen
 1331              	.LVL192:
 1332 0008 451C     		adds	r5, r0, #1
 1333              	.LVL193:
 517:Middlewares/Third_Party/RealThread_RTOS_RT-Thread/src/kservice.c **** 
 1334              		.loc 1 517 0
 1335 000a 2846     		mov	r0, r5
 1336 000c FFF7FEFF 		bl	rt_malloc
 1337              	.LVL194:
 519:Middlewares/Third_Party/RealThread_RTOS_RT-Thread/src/kservice.c ****         return RT_NULL;
 1338              		.loc 1 519 0
 1339 0010 0446     		mov	r4, r0
 1340 0012 18B1     		cbz	r0, .L156
 522:Middlewares/Third_Party/RealThread_RTOS_RT-Thread/src/kservice.c **** 
 1341              		.loc 1 522 0
 1342 0014 2A46     		mov	r2, r5
 1343 0016 3146     		mov	r1, r6
 1344 0018 FFF7FEFF 		bl	rt_memcpy
 1345              	.LVL195:
 1346              	.L156:
 525:Middlewares/Third_Party/RealThread_RTOS_RT-Thread/src/kservice.c **** RTM_EXPORT(rt_strdup);
 1347              		.loc 1 525 0
 1348 001c 2046     		mov	r0, r4
 1349 001e 70BD     		pop	{r4, r5, r6, pc}
 1350              		.cfi_endproc
 1351              	.LFE29:
 1353              		.section	.text.rt_vsnprintf,"ax",%progbits
ARM GAS  C:\Users\chuti\AppData\Local\Temp\cctMPljw.s 			page 41


 1354              		.align	1
 1355              		.global	rt_vsnprintf
 1356              		.syntax unified
 1357              		.thumb
 1358              		.thumb_func
 1359              		.fpu fpv4-sp-d16
 1361              	rt_vsnprintf:
 1362              	.LFB34:
 776:Middlewares/Third_Party/RealThread_RTOS_RT-Thread/src/kservice.c **** 
 777:Middlewares/Third_Party/RealThread_RTOS_RT-Thread/src/kservice.c **** rt_int32_t rt_vsnprintf(char       *buf,
 778:Middlewares/Third_Party/RealThread_RTOS_RT-Thread/src/kservice.c ****                         rt_size_t   size,
 779:Middlewares/Third_Party/RealThread_RTOS_RT-Thread/src/kservice.c ****                         const char *fmt,
 780:Middlewares/Third_Party/RealThread_RTOS_RT-Thread/src/kservice.c ****                         va_list     args)
 781:Middlewares/Third_Party/RealThread_RTOS_RT-Thread/src/kservice.c **** {
 1363              		.loc 1 781 0
 1364              		.cfi_startproc
 1365              		@ args = 0, pretend = 0, frame = 8
 1366              		@ frame_needed = 0, uses_anonymous_args = 0
 1367              	.LVL196:
 1368 0000 2DE9F04F 		push	{r4, r5, r6, r7, r8, r9, r10, fp, lr}
 1369              	.LCFI25:
 1370              		.cfi_def_cfa_offset 36
 1371              		.cfi_offset 4, -36
 1372              		.cfi_offset 5, -32
 1373              		.cfi_offset 6, -28
 1374              		.cfi_offset 7, -24
 1375              		.cfi_offset 8, -20
 1376              		.cfi_offset 9, -16
 1377              		.cfi_offset 10, -12
 1378              		.cfi_offset 11, -8
 1379              		.cfi_offset 14, -4
 1380 0004 87B0     		sub	sp, sp, #28
 1381              	.LCFI26:
 1382              		.cfi_def_cfa_offset 64
 1383 0006 8246     		mov	r10, r0
 1384 0008 0491     		str	r1, [sp, #16]
 1385 000a 1446     		mov	r4, r2
 1386 000c 0593     		str	r3, [sp, #20]
 1387              	.LVL197:
 782:Middlewares/Third_Party/RealThread_RTOS_RT-Thread/src/kservice.c **** #ifdef RT_PRINTF_LONGLONG
 783:Middlewares/Third_Party/RealThread_RTOS_RT-Thread/src/kservice.c ****     unsigned long long num;
 784:Middlewares/Third_Party/RealThread_RTOS_RT-Thread/src/kservice.c **** #else
 785:Middlewares/Third_Party/RealThread_RTOS_RT-Thread/src/kservice.c ****     rt_uint32_t num;
 786:Middlewares/Third_Party/RealThread_RTOS_RT-Thread/src/kservice.c **** #endif
 787:Middlewares/Third_Party/RealThread_RTOS_RT-Thread/src/kservice.c ****     int i, len;
 788:Middlewares/Third_Party/RealThread_RTOS_RT-Thread/src/kservice.c ****     char *str, *end, c;
 789:Middlewares/Third_Party/RealThread_RTOS_RT-Thread/src/kservice.c ****     const char *s;
 790:Middlewares/Third_Party/RealThread_RTOS_RT-Thread/src/kservice.c **** 
 791:Middlewares/Third_Party/RealThread_RTOS_RT-Thread/src/kservice.c ****     rt_uint8_t base;            /* the base of number */
 792:Middlewares/Third_Party/RealThread_RTOS_RT-Thread/src/kservice.c ****     rt_uint8_t flags;           /* flags to print number */
 793:Middlewares/Third_Party/RealThread_RTOS_RT-Thread/src/kservice.c ****     rt_uint8_t qualifier;       /* 'h', 'l', or 'L' for integer fields */
 794:Middlewares/Third_Party/RealThread_RTOS_RT-Thread/src/kservice.c ****     rt_int32_t field_width;     /* width of output field */
 795:Middlewares/Third_Party/RealThread_RTOS_RT-Thread/src/kservice.c **** 
 796:Middlewares/Third_Party/RealThread_RTOS_RT-Thread/src/kservice.c **** #ifdef RT_PRINTF_PRECISION
 797:Middlewares/Third_Party/RealThread_RTOS_RT-Thread/src/kservice.c ****     int precision;      /* min. # of digits for integers and max for a string */
 798:Middlewares/Third_Party/RealThread_RTOS_RT-Thread/src/kservice.c **** #endif
 799:Middlewares/Third_Party/RealThread_RTOS_RT-Thread/src/kservice.c **** 
ARM GAS  C:\Users\chuti\AppData\Local\Temp\cctMPljw.s 			page 42


 800:Middlewares/Third_Party/RealThread_RTOS_RT-Thread/src/kservice.c ****     str = buf;
 801:Middlewares/Third_Party/RealThread_RTOS_RT-Thread/src/kservice.c ****     end = buf + size;
 802:Middlewares/Third_Party/RealThread_RTOS_RT-Thread/src/kservice.c **** 
 803:Middlewares/Third_Party/RealThread_RTOS_RT-Thread/src/kservice.c ****     /* Make sure end is always >= buf */
 804:Middlewares/Third_Party/RealThread_RTOS_RT-Thread/src/kservice.c ****     if (end < buf)
 1388              		.loc 1 804 0
 1389 000e 10EB0108 		adds	r8, r0, r1
 1390              	.LVL198:
 1391 0012 03D3     		bcc	.L160
 1392              	.LVL199:
 805:Middlewares/Third_Party/RealThread_RTOS_RT-Thread/src/kservice.c ****     {
 806:Middlewares/Third_Party/RealThread_RTOS_RT-Thread/src/kservice.c ****         end  = ((char *) - 1);
 807:Middlewares/Third_Party/RealThread_RTOS_RT-Thread/src/kservice.c ****         size = end - buf;
 1393              		.loc 1 807 0
 1394 0014 C343     		mvns	r3, r0
 1395 0016 0493     		str	r3, [sp, #16]
 1396              	.LVL200:
 806:Middlewares/Third_Party/RealThread_RTOS_RT-Thread/src/kservice.c ****         size = end - buf;
 1397              		.loc 1 806 0
 1398 0018 4FF0FF38 		mov	r8, #-1
 1399              	.LVL201:
 1400              	.L160:
 806:Middlewares/Third_Party/RealThread_RTOS_RT-Thread/src/kservice.c ****         size = end - buf;
 1401              		.loc 1 806 0 is_stmt 0 discriminator 1
 1402 001c 5746     		mov	r7, r10
 1403 001e 01E0     		b	.L221
 1404              	.LVL202:
 1405              	.L162:
 808:Middlewares/Third_Party/RealThread_RTOS_RT-Thread/src/kservice.c ****     }
 809:Middlewares/Third_Party/RealThread_RTOS_RT-Thread/src/kservice.c **** 
 810:Middlewares/Third_Party/RealThread_RTOS_RT-Thread/src/kservice.c ****     for (; *fmt ; ++fmt)
 811:Middlewares/Third_Party/RealThread_RTOS_RT-Thread/src/kservice.c ****     {
 812:Middlewares/Third_Party/RealThread_RTOS_RT-Thread/src/kservice.c ****         if (*fmt != '%')
 813:Middlewares/Third_Party/RealThread_RTOS_RT-Thread/src/kservice.c ****         {
 814:Middlewares/Third_Party/RealThread_RTOS_RT-Thread/src/kservice.c ****             if (str < end)
 815:Middlewares/Third_Party/RealThread_RTOS_RT-Thread/src/kservice.c ****                 *str = *fmt;
 816:Middlewares/Third_Party/RealThread_RTOS_RT-Thread/src/kservice.c ****             ++ str;
 1406              		.loc 1 816 0 is_stmt 1
 1407 0020 0137     		adds	r7, r7, #1
 1408              	.LVL203:
 1409              	.L163:
 810:Middlewares/Third_Party/RealThread_RTOS_RT-Thread/src/kservice.c ****     {
 1410              		.loc 1 810 0
 1411 0022 0134     		adds	r4, r4, #1
 1412              	.LVL204:
 1413              	.L221:
 810:Middlewares/Third_Party/RealThread_RTOS_RT-Thread/src/kservice.c ****     {
 1414              		.loc 1 810 0 is_stmt 0 discriminator 1
 1415 0024 2378     		ldrb	r3, [r4]	@ zero_extendqisi2
 1416 0026 002B     		cmp	r3, #0
 1417 0028 00F06281 		beq	.L239
 812:Middlewares/Third_Party/RealThread_RTOS_RT-Thread/src/kservice.c ****         {
 1418              		.loc 1 812 0 is_stmt 1
 1419 002c 252B     		cmp	r3, #37
 1420 002e 03D0     		beq	.L225
 814:Middlewares/Third_Party/RealThread_RTOS_RT-Thread/src/kservice.c ****                 *str = *fmt;
 1421              		.loc 1 814 0
ARM GAS  C:\Users\chuti\AppData\Local\Temp\cctMPljw.s 			page 43


 1422 0030 4745     		cmp	r7, r8
 1423 0032 F5D2     		bcs	.L162
 815:Middlewares/Third_Party/RealThread_RTOS_RT-Thread/src/kservice.c ****             ++ str;
 1424              		.loc 1 815 0
 1425 0034 3B70     		strb	r3, [r7]
 1426 0036 F3E7     		b	.L162
 1427              	.L225:
 817:Middlewares/Third_Party/RealThread_RTOS_RT-Thread/src/kservice.c ****             continue;
 818:Middlewares/Third_Party/RealThread_RTOS_RT-Thread/src/kservice.c ****         }
 819:Middlewares/Third_Party/RealThread_RTOS_RT-Thread/src/kservice.c **** 
 820:Middlewares/Third_Party/RealThread_RTOS_RT-Thread/src/kservice.c ****         /* process flags */
 821:Middlewares/Third_Party/RealThread_RTOS_RT-Thread/src/kservice.c ****         flags = 0;
 1428              		.loc 1 821 0
 1429 0038 0025     		movs	r5, #0
 1430 003a 02E0     		b	.L161
 1431              	.LVL205:
 1432              	.L240:
 822:Middlewares/Third_Party/RealThread_RTOS_RT-Thread/src/kservice.c **** 
 823:Middlewares/Third_Party/RealThread_RTOS_RT-Thread/src/kservice.c ****         while (1)
 824:Middlewares/Third_Party/RealThread_RTOS_RT-Thread/src/kservice.c ****         {
 825:Middlewares/Third_Party/RealThread_RTOS_RT-Thread/src/kservice.c ****             /* skips the first '%' also */
 826:Middlewares/Third_Party/RealThread_RTOS_RT-Thread/src/kservice.c ****             ++ fmt;
 827:Middlewares/Third_Party/RealThread_RTOS_RT-Thread/src/kservice.c ****             if (*fmt == '-') flags |= LEFT;
 1433              		.loc 1 827 0 discriminator 1
 1434 003c 45F01005 		orr	r5, r5, #16
 1435              	.LVL206:
 1436              	.L165:
 781:Middlewares/Third_Party/RealThread_RTOS_RT-Thread/src/kservice.c **** #ifdef RT_PRINTF_LONGLONG
 1437              		.loc 1 781 0
 1438 0040 1446     		mov	r4, r2
 1439              	.LVL207:
 1440              	.L161:
 826:Middlewares/Third_Party/RealThread_RTOS_RT-Thread/src/kservice.c ****             if (*fmt == '-') flags |= LEFT;
 1441              		.loc 1 826 0
 1442 0042 621C     		adds	r2, r4, #1
 1443              	.LVL208:
 1444              		.loc 1 827 0
 1445 0044 6378     		ldrb	r3, [r4, #1]	@ zero_extendqisi2
 1446 0046 2D2B     		cmp	r3, #45
 1447 0048 F8D0     		beq	.L240
 828:Middlewares/Third_Party/RealThread_RTOS_RT-Thread/src/kservice.c ****             else if (*fmt == '+') flags |= PLUS;
 1448              		.loc 1 828 0
 1449 004a 2B2B     		cmp	r3, #43
 1450 004c 08D0     		beq	.L241
 829:Middlewares/Third_Party/RealThread_RTOS_RT-Thread/src/kservice.c ****             else if (*fmt == ' ') flags |= SPACE;
 1451              		.loc 1 829 0
 1452 004e 202B     		cmp	r3, #32
 1453 0050 09D0     		beq	.L242
 830:Middlewares/Third_Party/RealThread_RTOS_RT-Thread/src/kservice.c ****             else if (*fmt == '#') flags |= SPECIAL;
 1454              		.loc 1 830 0
 1455 0052 232B     		cmp	r3, #35
 1456 0054 0AD0     		beq	.L243
 831:Middlewares/Third_Party/RealThread_RTOS_RT-Thread/src/kservice.c ****             else if (*fmt == '0') flags |= ZEROPAD;
 1457              		.loc 1 831 0
 1458 0056 302B     		cmp	r3, #48
 1459 0058 0BD1     		bne	.L169
 1460              		.loc 1 831 0 is_stmt 0 discriminator 1
ARM GAS  C:\Users\chuti\AppData\Local\Temp\cctMPljw.s 			page 44


 1461 005a 45F00105 		orr	r5, r5, #1
 1462              	.LVL209:
 1463 005e EFE7     		b	.L165
 1464              	.L241:
 828:Middlewares/Third_Party/RealThread_RTOS_RT-Thread/src/kservice.c ****             else if (*fmt == ' ') flags |= SPACE;
 1465              		.loc 1 828 0 is_stmt 1 discriminator 1
 1466 0060 45F00405 		orr	r5, r5, #4
 1467              	.LVL210:
 1468 0064 ECE7     		b	.L165
 1469              	.L242:
 829:Middlewares/Third_Party/RealThread_RTOS_RT-Thread/src/kservice.c ****             else if (*fmt == '#') flags |= SPECIAL;
 1470              		.loc 1 829 0 discriminator 1
 1471 0066 45F00805 		orr	r5, r5, #8
 1472              	.LVL211:
 1473 006a E9E7     		b	.L165
 1474              	.L243:
 830:Middlewares/Third_Party/RealThread_RTOS_RT-Thread/src/kservice.c ****             else if (*fmt == '0') flags |= ZEROPAD;
 1475              		.loc 1 830 0 discriminator 1
 1476 006c 45F02005 		orr	r5, r5, #32
 1477              	.LVL212:
 1478 0070 E6E7     		b	.L165
 1479              	.L169:
 1480              	.LVL213:
 832:Middlewares/Third_Party/RealThread_RTOS_RT-Thread/src/kservice.c ****             else break;
 833:Middlewares/Third_Party/RealThread_RTOS_RT-Thread/src/kservice.c ****         }
 834:Middlewares/Third_Party/RealThread_RTOS_RT-Thread/src/kservice.c **** 
 835:Middlewares/Third_Party/RealThread_RTOS_RT-Thread/src/kservice.c ****         /* get field width */
 836:Middlewares/Third_Party/RealThread_RTOS_RT-Thread/src/kservice.c ****         field_width = -1;
 837:Middlewares/Third_Party/RealThread_RTOS_RT-Thread/src/kservice.c ****         if (isdigit(*fmt)) field_width = skip_atoi(&fmt);
 1481              		.loc 1 837 0
 1482 0072 A3F13001 		sub	r1, r3, #48
 1483 0076 0929     		cmp	r1, #9
 1484 0078 1CD9     		bls	.L244
 838:Middlewares/Third_Party/RealThread_RTOS_RT-Thread/src/kservice.c ****         else if (*fmt == '*')
 1485              		.loc 1 838 0
 1486 007a 2A2B     		cmp	r3, #42
 1487 007c 1CD0     		beq	.L245
 836:Middlewares/Third_Party/RealThread_RTOS_RT-Thread/src/kservice.c ****         if (isdigit(*fmt)) field_width = skip_atoi(&fmt);
 1488              		.loc 1 836 0
 1489 007e 4FF0FF36 		mov	r6, #-1
 1490              	.LVL214:
 1491              	.L173:
 839:Middlewares/Third_Party/RealThread_RTOS_RT-Thread/src/kservice.c ****         {
 840:Middlewares/Third_Party/RealThread_RTOS_RT-Thread/src/kservice.c ****             ++ fmt;
 841:Middlewares/Third_Party/RealThread_RTOS_RT-Thread/src/kservice.c ****             /* it's the next argument */
 842:Middlewares/Third_Party/RealThread_RTOS_RT-Thread/src/kservice.c ****             field_width = va_arg(args, int);
 843:Middlewares/Third_Party/RealThread_RTOS_RT-Thread/src/kservice.c ****             if (field_width < 0)
 844:Middlewares/Third_Party/RealThread_RTOS_RT-Thread/src/kservice.c ****             {
 845:Middlewares/Third_Party/RealThread_RTOS_RT-Thread/src/kservice.c ****                 field_width = -field_width;
 846:Middlewares/Third_Party/RealThread_RTOS_RT-Thread/src/kservice.c ****                 flags |= LEFT;
 847:Middlewares/Third_Party/RealThread_RTOS_RT-Thread/src/kservice.c ****             }
 848:Middlewares/Third_Party/RealThread_RTOS_RT-Thread/src/kservice.c ****         }
 849:Middlewares/Third_Party/RealThread_RTOS_RT-Thread/src/kservice.c **** 
 850:Middlewares/Third_Party/RealThread_RTOS_RT-Thread/src/kservice.c **** #ifdef RT_PRINTF_PRECISION
 851:Middlewares/Third_Party/RealThread_RTOS_RT-Thread/src/kservice.c ****         /* get the precision */
 852:Middlewares/Third_Party/RealThread_RTOS_RT-Thread/src/kservice.c ****         precision = -1;
 853:Middlewares/Third_Party/RealThread_RTOS_RT-Thread/src/kservice.c ****         if (*fmt == '.')
ARM GAS  C:\Users\chuti\AppData\Local\Temp\cctMPljw.s 			page 45


 1492              		.loc 1 853 0
 1493 0082 1378     		ldrb	r3, [r2]	@ zero_extendqisi2
 1494 0084 2E2B     		cmp	r3, #46
 1495 0086 22D0     		beq	.L246
 852:Middlewares/Third_Party/RealThread_RTOS_RT-Thread/src/kservice.c ****         if (*fmt == '.')
 1496              		.loc 1 852 0
 1497 0088 4FF0FF39 		mov	r9, #-1
 1498              	.LVL215:
 1499              	.L174:
 854:Middlewares/Third_Party/RealThread_RTOS_RT-Thread/src/kservice.c ****         {
 855:Middlewares/Third_Party/RealThread_RTOS_RT-Thread/src/kservice.c ****             ++ fmt;
 856:Middlewares/Third_Party/RealThread_RTOS_RT-Thread/src/kservice.c ****             if (isdigit(*fmt)) precision = skip_atoi(&fmt);
 857:Middlewares/Third_Party/RealThread_RTOS_RT-Thread/src/kservice.c ****             else if (*fmt == '*')
 858:Middlewares/Third_Party/RealThread_RTOS_RT-Thread/src/kservice.c ****             {
 859:Middlewares/Third_Party/RealThread_RTOS_RT-Thread/src/kservice.c ****                 ++ fmt;
 860:Middlewares/Third_Party/RealThread_RTOS_RT-Thread/src/kservice.c ****                 /* it's the next argument */
 861:Middlewares/Third_Party/RealThread_RTOS_RT-Thread/src/kservice.c ****                 precision = va_arg(args, int);
 862:Middlewares/Third_Party/RealThread_RTOS_RT-Thread/src/kservice.c ****             }
 863:Middlewares/Third_Party/RealThread_RTOS_RT-Thread/src/kservice.c ****             if (precision < 0) precision = 0;
 864:Middlewares/Third_Party/RealThread_RTOS_RT-Thread/src/kservice.c ****         }
 865:Middlewares/Third_Party/RealThread_RTOS_RT-Thread/src/kservice.c **** #endif
 866:Middlewares/Third_Party/RealThread_RTOS_RT-Thread/src/kservice.c ****         /* get the conversion qualifier */
 867:Middlewares/Third_Party/RealThread_RTOS_RT-Thread/src/kservice.c ****         qualifier = 0;
 868:Middlewares/Third_Party/RealThread_RTOS_RT-Thread/src/kservice.c **** #ifdef RT_PRINTF_LONGLONG
 869:Middlewares/Third_Party/RealThread_RTOS_RT-Thread/src/kservice.c ****         if (*fmt == 'h' || *fmt == 'l' || *fmt == 'L')
 870:Middlewares/Third_Party/RealThread_RTOS_RT-Thread/src/kservice.c **** #else
 871:Middlewares/Third_Party/RealThread_RTOS_RT-Thread/src/kservice.c ****         if (*fmt == 'h' || *fmt == 'l')
 1500              		.loc 1 871 0
 1501 008c 1178     		ldrb	r1, [r2]	@ zero_extendqisi2
 1502 008e 6829     		cmp	r1, #104
 1503 0090 48D0     		beq	.L179
 1504              		.loc 1 871 0 is_stmt 0 discriminator 1
 1505 0092 6C29     		cmp	r1, #108
 1506 0094 46D0     		beq	.L179
 1507 0096 1446     		mov	r4, r2
 867:Middlewares/Third_Party/RealThread_RTOS_RT-Thread/src/kservice.c **** #ifdef RT_PRINTF_LONGLONG
 1508              		.loc 1 867 0 is_stmt 1
 1509 0098 0021     		movs	r1, #0
 1510 009a 44E0     		b	.L180
 1511              	.LVL216:
 1512              	.L172:
 1513              	.LBB13:
 1514              	.LBB14:
 592:Middlewares/Third_Party/RealThread_RTOS_RT-Thread/src/kservice.c **** 
 1515              		.loc 1 592 0
 1516 009c 06EB8606 		add	r6, r6, r6, lsl #2
 1517              	.LVL217:
 1518 00a0 7300     		lsls	r3, r6, #1
 1519 00a2 0132     		adds	r2, r2, #1
 1520              	.LVL218:
 1521 00a4 5E18     		adds	r6, r3, r1
 1522 00a6 303E     		subs	r6, r6, #48
 1523              	.LVL219:
 1524              	.L170:
 591:Middlewares/Third_Party/RealThread_RTOS_RT-Thread/src/kservice.c ****         i = i * 10 + *((*s)++) - '0';
 1525              		.loc 1 591 0
 1526 00a8 1178     		ldrb	r1, [r2]	@ zero_extendqisi2
ARM GAS  C:\Users\chuti\AppData\Local\Temp\cctMPljw.s 			page 46


 1527 00aa A1F13003 		sub	r3, r1, #48
 1528 00ae 092B     		cmp	r3, #9
 1529 00b0 F4D9     		bls	.L172
 1530 00b2 E6E7     		b	.L173
 1531              	.LVL220:
 1532              	.L244:
 590:Middlewares/Third_Party/RealThread_RTOS_RT-Thread/src/kservice.c ****     while (isdigit(**s))
 1533              		.loc 1 590 0
 1534 00b4 0026     		movs	r6, #0
 1535 00b6 F7E7     		b	.L170
 1536              	.L245:
 1537              	.LBE14:
 1538              	.LBE13:
 840:Middlewares/Third_Party/RealThread_RTOS_RT-Thread/src/kservice.c ****             /* it's the next argument */
 1539              		.loc 1 840 0
 1540 00b8 A21C     		adds	r2, r4, #2
 1541              	.LVL221:
 842:Middlewares/Third_Party/RealThread_RTOS_RT-Thread/src/kservice.c ****             if (field_width < 0)
 1542              		.loc 1 842 0
 1543 00ba 059B     		ldr	r3, [sp, #20]
 1544 00bc 191D     		adds	r1, r3, #4
 1545 00be 0591     		str	r1, [sp, #20]
 1546 00c0 1E68     		ldr	r6, [r3]
 1547              	.LVL222:
 843:Middlewares/Third_Party/RealThread_RTOS_RT-Thread/src/kservice.c ****             {
 1548              		.loc 1 843 0
 1549 00c2 002E     		cmp	r6, #0
 1550 00c4 DDDA     		bge	.L173
 845:Middlewares/Third_Party/RealThread_RTOS_RT-Thread/src/kservice.c ****                 flags |= LEFT;
 1551              		.loc 1 845 0
 1552 00c6 7642     		negs	r6, r6
 1553              	.LVL223:
 846:Middlewares/Third_Party/RealThread_RTOS_RT-Thread/src/kservice.c ****             }
 1554              		.loc 1 846 0
 1555 00c8 45F01005 		orr	r5, r5, #16
 1556              	.LVL224:
 1557 00cc D9E7     		b	.L173
 1558              	.LVL225:
 1559              	.L246:
 855:Middlewares/Third_Party/RealThread_RTOS_RT-Thread/src/kservice.c ****             if (isdigit(*fmt)) precision = skip_atoi(&fmt);
 1560              		.loc 1 855 0
 1561 00ce 511C     		adds	r1, r2, #1
 1562              	.LVL226:
 856:Middlewares/Third_Party/RealThread_RTOS_RT-Thread/src/kservice.c ****             else if (*fmt == '*')
 1563              		.loc 1 856 0
 1564 00d0 5378     		ldrb	r3, [r2, #1]	@ zero_extendqisi2
 1565 00d2 A3F13000 		sub	r0, r3, #48
 1566 00d6 0928     		cmp	r0, #9
 1567 00d8 1AD9     		bls	.L247
 857:Middlewares/Third_Party/RealThread_RTOS_RT-Thread/src/kservice.c ****             {
 1568              		.loc 1 857 0
 1569 00da 2A2B     		cmp	r3, #42
 1570 00dc 1BD0     		beq	.L248
 855:Middlewares/Third_Party/RealThread_RTOS_RT-Thread/src/kservice.c ****             if (isdigit(*fmt)) precision = skip_atoi(&fmt);
 1571              		.loc 1 855 0
 1572 00de 0A46     		mov	r2, r1
 863:Middlewares/Third_Party/RealThread_RTOS_RT-Thread/src/kservice.c ****         }
ARM GAS  C:\Users\chuti\AppData\Local\Temp\cctMPljw.s 			page 47


 1573              		.loc 1 863 0
 1574 00e0 4FF00009 		mov	r9, #0
 1575 00e4 D2E7     		b	.L174
 1576              	.LVL227:
 1577              	.L177:
 1578              	.LBB15:
 1579              	.LBB16:
 592:Middlewares/Third_Party/RealThread_RTOS_RT-Thread/src/kservice.c **** 
 1580              		.loc 1 592 0
 1581 00e6 09EB8909 		add	r9, r9, r9, lsl #2
 1582              	.LVL228:
 1583 00ea 4FEA4903 		lsl	r3, r9, #1
 1584 00ee 0131     		adds	r1, r1, #1
 1585              	.LVL229:
 1586 00f0 03EB0209 		add	r9, r3, r2
 1587 00f4 A9F13009 		sub	r9, r9, #48
 1588              	.LVL230:
 1589              	.L175:
 591:Middlewares/Third_Party/RealThread_RTOS_RT-Thread/src/kservice.c ****         i = i * 10 + *((*s)++) - '0';
 1590              		.loc 1 591 0
 1591 00f8 0A78     		ldrb	r2, [r1]	@ zero_extendqisi2
 1592 00fa A2F13003 		sub	r3, r2, #48
 1593 00fe 092B     		cmp	r3, #9
 1594 0100 F1D9     		bls	.L177
 1595 0102 0A46     		mov	r2, r1
 1596              	.LVL231:
 1597              	.L178:
 1598              	.LBE16:
 1599              	.LBE15:
 863:Middlewares/Third_Party/RealThread_RTOS_RT-Thread/src/kservice.c ****         }
 1600              		.loc 1 863 0
 1601 0104 B9F1000F 		cmp	r9, #0
 1602 0108 C0DA     		bge	.L174
 1603 010a 4FF00009 		mov	r9, #0
 1604              	.LVL232:
 1605 010e BDE7     		b	.L174
 1606              	.LVL233:
 1607              	.L247:
 1608              	.LBB18:
 1609              	.LBB17:
 590:Middlewares/Third_Party/RealThread_RTOS_RT-Thread/src/kservice.c ****     while (isdigit(**s))
 1610              		.loc 1 590 0
 1611 0110 4FF00009 		mov	r9, #0
 1612 0114 F0E7     		b	.L175
 1613              	.L248:
 1614              	.LBE17:
 1615              	.LBE18:
 859:Middlewares/Third_Party/RealThread_RTOS_RT-Thread/src/kservice.c ****                 /* it's the next argument */
 1616              		.loc 1 859 0
 1617 0116 0232     		adds	r2, r2, #2
 1618              	.LVL234:
 861:Middlewares/Third_Party/RealThread_RTOS_RT-Thread/src/kservice.c ****             }
 1619              		.loc 1 861 0
 1620 0118 059B     		ldr	r3, [sp, #20]
 1621 011a 191D     		adds	r1, r3, #4
 1622 011c 0591     		str	r1, [sp, #20]
 1623 011e D3F80090 		ldr	r9, [r3]
ARM GAS  C:\Users\chuti\AppData\Local\Temp\cctMPljw.s 			page 48


 1624 0122 EFE7     		b	.L178
 1625              	.LVL235:
 1626              	.L179:
 872:Middlewares/Third_Party/RealThread_RTOS_RT-Thread/src/kservice.c **** #endif
 873:Middlewares/Third_Party/RealThread_RTOS_RT-Thread/src/kservice.c ****         {
 874:Middlewares/Third_Party/RealThread_RTOS_RT-Thread/src/kservice.c ****             qualifier = *fmt;
 875:Middlewares/Third_Party/RealThread_RTOS_RT-Thread/src/kservice.c ****             ++ fmt;
 1627              		.loc 1 875 0
 1628 0124 541C     		adds	r4, r2, #1
 1629              	.LVL236:
 1630              	.L180:
 876:Middlewares/Third_Party/RealThread_RTOS_RT-Thread/src/kservice.c **** #ifdef RT_PRINTF_LONGLONG
 877:Middlewares/Third_Party/RealThread_RTOS_RT-Thread/src/kservice.c ****             if (qualifier == 'l' && *fmt == 'l')
 878:Middlewares/Third_Party/RealThread_RTOS_RT-Thread/src/kservice.c ****             {
 879:Middlewares/Third_Party/RealThread_RTOS_RT-Thread/src/kservice.c ****                 qualifier = 'L';
 880:Middlewares/Third_Party/RealThread_RTOS_RT-Thread/src/kservice.c ****                 ++ fmt;
 881:Middlewares/Third_Party/RealThread_RTOS_RT-Thread/src/kservice.c ****             }
 882:Middlewares/Third_Party/RealThread_RTOS_RT-Thread/src/kservice.c **** #endif
 883:Middlewares/Third_Party/RealThread_RTOS_RT-Thread/src/kservice.c ****         }
 884:Middlewares/Third_Party/RealThread_RTOS_RT-Thread/src/kservice.c **** 
 885:Middlewares/Third_Party/RealThread_RTOS_RT-Thread/src/kservice.c ****         /* the default base */
 886:Middlewares/Third_Party/RealThread_RTOS_RT-Thread/src/kservice.c ****         base = 10;
 887:Middlewares/Third_Party/RealThread_RTOS_RT-Thread/src/kservice.c **** 
 888:Middlewares/Third_Party/RealThread_RTOS_RT-Thread/src/kservice.c ****         switch (*fmt)
 1631              		.loc 1 888 0
 1632 0126 2378     		ldrb	r3, [r4]	@ zero_extendqisi2
 1633 0128 253B     		subs	r3, r3, #37
 1634 012a 532B     		cmp	r3, #83
 1635 012c 00F2AD80 		bhi	.L181
 1636 0130 DFE803F0 		tbb	[pc, r3]
 1637              	.L183:
 1638 0134 9B       		.byte	(.L182-.L183)/2
 1639 0135 AB       		.byte	(.L181-.L183)/2
 1640 0136 AB       		.byte	(.L181-.L183)/2
 1641 0137 AB       		.byte	(.L181-.L183)/2
 1642 0138 AB       		.byte	(.L181-.L183)/2
 1643 0139 AB       		.byte	(.L181-.L183)/2
 1644 013a AB       		.byte	(.L181-.L183)/2
 1645 013b AB       		.byte	(.L181-.L183)/2
 1646 013c AB       		.byte	(.L181-.L183)/2
 1647 013d AB       		.byte	(.L181-.L183)/2
 1648 013e AB       		.byte	(.L181-.L183)/2
 1649 013f AB       		.byte	(.L181-.L183)/2
 1650 0140 AB       		.byte	(.L181-.L183)/2
 1651 0141 AB       		.byte	(.L181-.L183)/2
 1652 0142 AB       		.byte	(.L181-.L183)/2
 1653 0143 AB       		.byte	(.L181-.L183)/2
 1654 0144 AB       		.byte	(.L181-.L183)/2
 1655 0145 AB       		.byte	(.L181-.L183)/2
 1656 0146 AB       		.byte	(.L181-.L183)/2
 1657 0147 AB       		.byte	(.L181-.L183)/2
 1658 0148 AB       		.byte	(.L181-.L183)/2
 1659 0149 AB       		.byte	(.L181-.L183)/2
 1660 014a AB       		.byte	(.L181-.L183)/2
 1661 014b AB       		.byte	(.L181-.L183)/2
 1662 014c AB       		.byte	(.L181-.L183)/2
 1663 014d AB       		.byte	(.L181-.L183)/2
ARM GAS  C:\Users\chuti\AppData\Local\Temp\cctMPljw.s 			page 49


 1664 014e AB       		.byte	(.L181-.L183)/2
 1665 014f AB       		.byte	(.L181-.L183)/2
 1666 0150 AB       		.byte	(.L181-.L183)/2
 1667 0151 AB       		.byte	(.L181-.L183)/2
 1668 0152 AB       		.byte	(.L181-.L183)/2
 1669 0153 AB       		.byte	(.L181-.L183)/2
 1670 0154 AB       		.byte	(.L181-.L183)/2
 1671 0155 AB       		.byte	(.L181-.L183)/2
 1672 0156 AB       		.byte	(.L181-.L183)/2
 1673 0157 AB       		.byte	(.L181-.L183)/2
 1674 0158 AB       		.byte	(.L181-.L183)/2
 1675 0159 AB       		.byte	(.L181-.L183)/2
 1676 015a AB       		.byte	(.L181-.L183)/2
 1677 015b AB       		.byte	(.L181-.L183)/2
 1678 015c AB       		.byte	(.L181-.L183)/2
 1679 015d AB       		.byte	(.L181-.L183)/2
 1680 015e AB       		.byte	(.L181-.L183)/2
 1681 015f AB       		.byte	(.L181-.L183)/2
 1682 0160 AB       		.byte	(.L181-.L183)/2
 1683 0161 AB       		.byte	(.L181-.L183)/2
 1684 0162 AB       		.byte	(.L181-.L183)/2
 1685 0163 AB       		.byte	(.L181-.L183)/2
 1686 0164 AB       		.byte	(.L181-.L183)/2
 1687 0165 AB       		.byte	(.L181-.L183)/2
 1688 0166 AB       		.byte	(.L181-.L183)/2
 1689 0167 A3       		.byte	(.L184-.L183)/2
 1690 0168 AB       		.byte	(.L181-.L183)/2
 1691 0169 AB       		.byte	(.L181-.L183)/2
 1692 016a AB       		.byte	(.L181-.L183)/2
 1693 016b AB       		.byte	(.L181-.L183)/2
 1694 016c AB       		.byte	(.L181-.L183)/2
 1695 016d AB       		.byte	(.L181-.L183)/2
 1696 016e AB       		.byte	(.L181-.L183)/2
 1697 016f AB       		.byte	(.L181-.L183)/2
 1698 0170 AB       		.byte	(.L181-.L183)/2
 1699 0171 AB       		.byte	(.L181-.L183)/2
 1700 0172 2A       		.byte	(.L185-.L183)/2
 1701 0173 A7       		.byte	(.L186-.L183)/2
 1702 0174 AB       		.byte	(.L181-.L183)/2
 1703 0175 AB       		.byte	(.L181-.L183)/2
 1704 0176 AB       		.byte	(.L181-.L183)/2
 1705 0177 AB       		.byte	(.L181-.L183)/2
 1706 0178 A7       		.byte	(.L186-.L183)/2
 1707 0179 AB       		.byte	(.L181-.L183)/2
 1708 017a AB       		.byte	(.L181-.L183)/2
 1709 017b AB       		.byte	(.L181-.L183)/2
 1710 017c AB       		.byte	(.L181-.L183)/2
 1711 017d AB       		.byte	(.L181-.L183)/2
 1712 017e A1       		.byte	(.L187-.L183)/2
 1713 017f 85       		.byte	(.L188-.L183)/2
 1714 0180 AB       		.byte	(.L181-.L183)/2
 1715 0181 AB       		.byte	(.L181-.L183)/2
 1716 0182 49       		.byte	(.L189-.L183)/2
 1717 0183 AB       		.byte	(.L181-.L183)/2
 1718 0184 BA       		.byte	(.L190-.L183)/2
 1719 0185 AB       		.byte	(.L181-.L183)/2
 1720 0186 AB       		.byte	(.L181-.L183)/2
ARM GAS  C:\Users\chuti\AppData\Local\Temp\cctMPljw.s 			page 50


 1721 0187 BC       		.byte	(.L233-.L183)/2
 1722              		.p2align 1
 1723              	.L185:
 889:Middlewares/Third_Party/RealThread_RTOS_RT-Thread/src/kservice.c ****         {
 890:Middlewares/Third_Party/RealThread_RTOS_RT-Thread/src/kservice.c ****         case 'c':
 891:Middlewares/Third_Party/RealThread_RTOS_RT-Thread/src/kservice.c ****             if (!(flags & LEFT))
 1724              		.loc 1 891 0
 1725 0188 15F0100F 		tst	r5, #16
 1726 018c 09D0     		beq	.L192
 1727              	.L193:
 892:Middlewares/Third_Party/RealThread_RTOS_RT-Thread/src/kservice.c ****             {
 893:Middlewares/Third_Party/RealThread_RTOS_RT-Thread/src/kservice.c ****                 while (--field_width > 0)
 894:Middlewares/Third_Party/RealThread_RTOS_RT-Thread/src/kservice.c ****                 {
 895:Middlewares/Third_Party/RealThread_RTOS_RT-Thread/src/kservice.c ****                     if (str < end) *str = ' ';
 896:Middlewares/Third_Party/RealThread_RTOS_RT-Thread/src/kservice.c ****                     ++ str;
 897:Middlewares/Third_Party/RealThread_RTOS_RT-Thread/src/kservice.c ****                 }
 898:Middlewares/Third_Party/RealThread_RTOS_RT-Thread/src/kservice.c ****             }
 899:Middlewares/Third_Party/RealThread_RTOS_RT-Thread/src/kservice.c **** 
 900:Middlewares/Third_Party/RealThread_RTOS_RT-Thread/src/kservice.c ****             /* get character */
 901:Middlewares/Third_Party/RealThread_RTOS_RT-Thread/src/kservice.c ****             c = (rt_uint8_t)va_arg(args, int);
 1728              		.loc 1 901 0
 1729 018e 059B     		ldr	r3, [sp, #20]
 1730 0190 1A1D     		adds	r2, r3, #4
 1731 0192 0592     		str	r2, [sp, #20]
 1732 0194 1B78     		ldrb	r3, [r3]	@ zero_extendqisi2
 1733              	.LVL237:
 902:Middlewares/Third_Party/RealThread_RTOS_RT-Thread/src/kservice.c ****             if (str < end) *str = c;
 1734              		.loc 1 902 0
 1735 0196 4745     		cmp	r7, r8
 1736 0198 00D2     		bcs	.L196
 1737              		.loc 1 902 0 is_stmt 0 discriminator 1
 1738 019a 3B70     		strb	r3, [r7]
 1739              	.L196:
 903:Middlewares/Third_Party/RealThread_RTOS_RT-Thread/src/kservice.c ****             ++ str;
 1740              		.loc 1 903 0 is_stmt 1
 1741 019c 0137     		adds	r7, r7, #1
 1742              	.LVL238:
 904:Middlewares/Third_Party/RealThread_RTOS_RT-Thread/src/kservice.c **** 
 905:Middlewares/Third_Party/RealThread_RTOS_RT-Thread/src/kservice.c ****             /* put width */
 906:Middlewares/Third_Party/RealThread_RTOS_RT-Thread/src/kservice.c ****             while (--field_width > 0)
 1743              		.loc 1 906 0
 1744 019e 09E0     		b	.L197
 1745              	.LVL239:
 1746              	.L194:
 896:Middlewares/Third_Party/RealThread_RTOS_RT-Thread/src/kservice.c ****                 }
 1747              		.loc 1 896 0
 1748 01a0 0137     		adds	r7, r7, #1
 1749              	.LVL240:
 1750              	.L192:
 893:Middlewares/Third_Party/RealThread_RTOS_RT-Thread/src/kservice.c ****                 {
 1751              		.loc 1 893 0
 1752 01a2 013E     		subs	r6, r6, #1
 1753              	.LVL241:
 1754 01a4 002E     		cmp	r6, #0
 1755 01a6 F2DD     		ble	.L193
 895:Middlewares/Third_Party/RealThread_RTOS_RT-Thread/src/kservice.c ****                     ++ str;
 1756              		.loc 1 895 0
ARM GAS  C:\Users\chuti\AppData\Local\Temp\cctMPljw.s 			page 51


 1757 01a8 4745     		cmp	r7, r8
 1758 01aa F9D2     		bcs	.L194
 895:Middlewares/Third_Party/RealThread_RTOS_RT-Thread/src/kservice.c ****                     ++ str;
 1759              		.loc 1 895 0 is_stmt 0 discriminator 1
 1760 01ac 2023     		movs	r3, #32
 1761 01ae 3B70     		strb	r3, [r7]
 1762 01b0 F6E7     		b	.L194
 1763              	.L198:
 907:Middlewares/Third_Party/RealThread_RTOS_RT-Thread/src/kservice.c ****             {
 908:Middlewares/Third_Party/RealThread_RTOS_RT-Thread/src/kservice.c ****                 if (str < end) *str = ' ';
 909:Middlewares/Third_Party/RealThread_RTOS_RT-Thread/src/kservice.c ****                 ++ str;
 1764              		.loc 1 909 0 is_stmt 1
 1765 01b2 0137     		adds	r7, r7, #1
 1766              	.LVL242:
 1767              	.L197:
 906:Middlewares/Third_Party/RealThread_RTOS_RT-Thread/src/kservice.c ****             {
 1768              		.loc 1 906 0
 1769 01b4 013E     		subs	r6, r6, #1
 1770              	.LVL243:
 1771 01b6 002E     		cmp	r6, #0
 1772 01b8 7FF733AF 		ble	.L163
 908:Middlewares/Third_Party/RealThread_RTOS_RT-Thread/src/kservice.c ****                 ++ str;
 1773              		.loc 1 908 0
 1774 01bc 4745     		cmp	r7, r8
 1775 01be F8D2     		bcs	.L198
 908:Middlewares/Third_Party/RealThread_RTOS_RT-Thread/src/kservice.c ****                 ++ str;
 1776              		.loc 1 908 0 is_stmt 0 discriminator 1
 1777 01c0 2023     		movs	r3, #32
 1778 01c2 3B70     		strb	r3, [r7]
 1779 01c4 F5E7     		b	.L198
 1780              	.L189:
 910:Middlewares/Third_Party/RealThread_RTOS_RT-Thread/src/kservice.c ****             }
 911:Middlewares/Third_Party/RealThread_RTOS_RT-Thread/src/kservice.c ****             continue;
 912:Middlewares/Third_Party/RealThread_RTOS_RT-Thread/src/kservice.c **** 
 913:Middlewares/Third_Party/RealThread_RTOS_RT-Thread/src/kservice.c ****         case 's':
 914:Middlewares/Third_Party/RealThread_RTOS_RT-Thread/src/kservice.c ****             s = va_arg(args, char *);
 1781              		.loc 1 914 0 is_stmt 1
 1782 01c6 059B     		ldr	r3, [sp, #20]
 1783 01c8 1A1D     		adds	r2, r3, #4
 1784 01ca 0592     		str	r2, [sp, #20]
 1785 01cc D3F800B0 		ldr	fp, [r3]
 915:Middlewares/Third_Party/RealThread_RTOS_RT-Thread/src/kservice.c ****             if (!s) s = "(NULL)";
 1786              		.loc 1 915 0
 1787 01d0 BBF1000F 		cmp	fp, #0
 1788 01d4 0DD0     		beq	.L249
 1789              	.L200:
 1790              	.LVL244:
 916:Middlewares/Third_Party/RealThread_RTOS_RT-Thread/src/kservice.c **** 
 917:Middlewares/Third_Party/RealThread_RTOS_RT-Thread/src/kservice.c ****             len = rt_strlen(s);
 1791              		.loc 1 917 0
 1792 01d6 5846     		mov	r0, fp
 1793 01d8 FFF7FEFF 		bl	rt_strlen
 1794              	.LVL245:
 918:Middlewares/Third_Party/RealThread_RTOS_RT-Thread/src/kservice.c **** #ifdef RT_PRINTF_PRECISION
 919:Middlewares/Third_Party/RealThread_RTOS_RT-Thread/src/kservice.c ****             if (precision > 0 && len > precision) len = precision;
 1795              		.loc 1 919 0
 1796 01dc B9F1000F 		cmp	r9, #0
ARM GAS  C:\Users\chuti\AppData\Local\Temp\cctMPljw.s 			page 52


 1797 01e0 02DD     		ble	.L201
 1798              		.loc 1 919 0 is_stmt 0 discriminator 1
 1799 01e2 8145     		cmp	r9, r0
 1800 01e4 00DA     		bge	.L201
 1801              		.loc 1 919 0
 1802 01e6 4846     		mov	r0, r9
 1803              	.LVL246:
 1804              	.L201:
 920:Middlewares/Third_Party/RealThread_RTOS_RT-Thread/src/kservice.c **** #endif
 921:Middlewares/Third_Party/RealThread_RTOS_RT-Thread/src/kservice.c **** 
 922:Middlewares/Third_Party/RealThread_RTOS_RT-Thread/src/kservice.c ****             if (!(flags & LEFT))
 1805              		.loc 1 922 0 is_stmt 1
 1806 01e8 15F0100F 		tst	r5, #16
 1807 01ec 06D0     		beq	.L202
 1808              	.L203:
 1809              	.LVL247:
 923:Middlewares/Third_Party/RealThread_RTOS_RT-Thread/src/kservice.c ****             {
 924:Middlewares/Third_Party/RealThread_RTOS_RT-Thread/src/kservice.c ****                 while (len < field_width--)
 925:Middlewares/Third_Party/RealThread_RTOS_RT-Thread/src/kservice.c ****                 {
 926:Middlewares/Third_Party/RealThread_RTOS_RT-Thread/src/kservice.c ****                     if (str < end) *str = ' ';
 927:Middlewares/Third_Party/RealThread_RTOS_RT-Thread/src/kservice.c ****                     ++ str;
 928:Middlewares/Third_Party/RealThread_RTOS_RT-Thread/src/kservice.c ****                 }
 929:Middlewares/Third_Party/RealThread_RTOS_RT-Thread/src/kservice.c ****             }
 930:Middlewares/Third_Party/RealThread_RTOS_RT-Thread/src/kservice.c **** 
 931:Middlewares/Third_Party/RealThread_RTOS_RT-Thread/src/kservice.c ****             for (i = 0; i < len; ++i)
 1810              		.loc 1 931 0
 1811 01ee 0023     		movs	r3, #0
 1812 01f0 12E0     		b	.L206
 1813              	.LVL248:
 1814              	.L249:
 915:Middlewares/Third_Party/RealThread_RTOS_RT-Thread/src/kservice.c **** 
 1815              		.loc 1 915 0
 1816 01f2 DFF81CB1 		ldr	fp, .L255
 1817 01f6 EEE7     		b	.L200
 1818              	.LVL249:
 1819              	.L204:
 927:Middlewares/Third_Party/RealThread_RTOS_RT-Thread/src/kservice.c ****                 }
 1820              		.loc 1 927 0
 1821 01f8 0137     		adds	r7, r7, #1
 1822              	.LVL250:
 924:Middlewares/Third_Party/RealThread_RTOS_RT-Thread/src/kservice.c ****                 {
 1823              		.loc 1 924 0
 1824 01fa 1E46     		mov	r6, r3
 1825              	.LVL251:
 1826              	.L202:
 1827 01fc 731E     		subs	r3, r6, #1
 1828              	.LVL252:
 1829 01fe B042     		cmp	r0, r6
 1830 0200 04DA     		bge	.L250
 926:Middlewares/Third_Party/RealThread_RTOS_RT-Thread/src/kservice.c ****                     ++ str;
 1831              		.loc 1 926 0
 1832 0202 4745     		cmp	r7, r8
 1833 0204 F8D2     		bcs	.L204
 926:Middlewares/Third_Party/RealThread_RTOS_RT-Thread/src/kservice.c ****                     ++ str;
 1834              		.loc 1 926 0 is_stmt 0 discriminator 1
 1835 0206 2022     		movs	r2, #32
 1836 0208 3A70     		strb	r2, [r7]
ARM GAS  C:\Users\chuti\AppData\Local\Temp\cctMPljw.s 			page 53


 1837 020a F5E7     		b	.L204
 1838              	.L250:
 924:Middlewares/Third_Party/RealThread_RTOS_RT-Thread/src/kservice.c ****                 {
 1839              		.loc 1 924 0 is_stmt 1
 1840 020c 1E46     		mov	r6, r3
 1841 020e EEE7     		b	.L203
 1842              	.LVL253:
 1843              	.L207:
 932:Middlewares/Third_Party/RealThread_RTOS_RT-Thread/src/kservice.c ****             {
 933:Middlewares/Third_Party/RealThread_RTOS_RT-Thread/src/kservice.c ****                 if (str < end) *str = *s;
 934:Middlewares/Third_Party/RealThread_RTOS_RT-Thread/src/kservice.c ****                 ++ str;
 1844              		.loc 1 934 0 discriminator 2
 1845 0210 0137     		adds	r7, r7, #1
 1846              	.LVL254:
 935:Middlewares/Third_Party/RealThread_RTOS_RT-Thread/src/kservice.c ****                 ++ s;
 1847              		.loc 1 935 0 discriminator 2
 1848 0212 0BF1010B 		add	fp, fp, #1
 1849              	.LVL255:
 931:Middlewares/Third_Party/RealThread_RTOS_RT-Thread/src/kservice.c ****             {
 1850              		.loc 1 931 0 discriminator 2
 1851 0216 0133     		adds	r3, r3, #1
 1852              	.LVL256:
 1853              	.L206:
 931:Middlewares/Third_Party/RealThread_RTOS_RT-Thread/src/kservice.c ****             {
 1854              		.loc 1 931 0 is_stmt 0 discriminator 1
 1855 0218 8342     		cmp	r3, r0
 1856 021a 07DA     		bge	.L209
 933:Middlewares/Third_Party/RealThread_RTOS_RT-Thread/src/kservice.c ****                 ++ str;
 1857              		.loc 1 933 0 is_stmt 1
 1858 021c 4745     		cmp	r7, r8
 1859 021e F7D2     		bcs	.L207
 933:Middlewares/Third_Party/RealThread_RTOS_RT-Thread/src/kservice.c ****                 ++ str;
 1860              		.loc 1 933 0 is_stmt 0 discriminator 1
 1861 0220 9BF80020 		ldrb	r2, [fp]	@ zero_extendqisi2
 1862 0224 3A70     		strb	r2, [r7]
 1863 0226 F3E7     		b	.L207
 1864              	.LVL257:
 1865              	.L210:
 936:Middlewares/Third_Party/RealThread_RTOS_RT-Thread/src/kservice.c ****             }
 937:Middlewares/Third_Party/RealThread_RTOS_RT-Thread/src/kservice.c **** 
 938:Middlewares/Third_Party/RealThread_RTOS_RT-Thread/src/kservice.c ****             while (len < field_width--)
 939:Middlewares/Third_Party/RealThread_RTOS_RT-Thread/src/kservice.c ****             {
 940:Middlewares/Third_Party/RealThread_RTOS_RT-Thread/src/kservice.c ****                 if (str < end) *str = ' ';
 941:Middlewares/Third_Party/RealThread_RTOS_RT-Thread/src/kservice.c ****                 ++ str;
 1866              		.loc 1 941 0 is_stmt 1
 1867 0228 0137     		adds	r7, r7, #1
 1868              	.LVL258:
 938:Middlewares/Third_Party/RealThread_RTOS_RT-Thread/src/kservice.c ****             {
 1869              		.loc 1 938 0
 1870 022a 1E46     		mov	r6, r3
 1871              	.LVL259:
 1872              	.L209:
 1873 022c 731E     		subs	r3, r6, #1
 1874              	.LVL260:
 1875 022e B042     		cmp	r0, r6
 1876 0230 BFF6F7AE 		bge	.L163
 940:Middlewares/Third_Party/RealThread_RTOS_RT-Thread/src/kservice.c ****                 ++ str;
ARM GAS  C:\Users\chuti\AppData\Local\Temp\cctMPljw.s 			page 54


 1877              		.loc 1 940 0
 1878 0234 4745     		cmp	r7, r8
 1879 0236 F7D2     		bcs	.L210
 940:Middlewares/Third_Party/RealThread_RTOS_RT-Thread/src/kservice.c ****                 ++ str;
 1880              		.loc 1 940 0 is_stmt 0 discriminator 1
 1881 0238 2022     		movs	r2, #32
 1882 023a 3A70     		strb	r2, [r7]
 1883 023c F4E7     		b	.L210
 1884              	.LVL261:
 1885              	.L188:
 942:Middlewares/Third_Party/RealThread_RTOS_RT-Thread/src/kservice.c ****             }
 943:Middlewares/Third_Party/RealThread_RTOS_RT-Thread/src/kservice.c ****             continue;
 944:Middlewares/Third_Party/RealThread_RTOS_RT-Thread/src/kservice.c **** 
 945:Middlewares/Third_Party/RealThread_RTOS_RT-Thread/src/kservice.c ****         case 'p':
 946:Middlewares/Third_Party/RealThread_RTOS_RT-Thread/src/kservice.c ****             if (field_width == -1)
 1886              		.loc 1 946 0 is_stmt 1
 1887 023e B6F1FF3F 		cmp	r6, #-1
 1888 0242 0ED0     		beq	.L251
 1889              	.LVL262:
 1890              	.L212:
 947:Middlewares/Third_Party/RealThread_RTOS_RT-Thread/src/kservice.c ****             {
 948:Middlewares/Third_Party/RealThread_RTOS_RT-Thread/src/kservice.c ****                 field_width = sizeof(void *) << 1;
 949:Middlewares/Third_Party/RealThread_RTOS_RT-Thread/src/kservice.c ****                 flags |= ZEROPAD;
 950:Middlewares/Third_Party/RealThread_RTOS_RT-Thread/src/kservice.c ****             }
 951:Middlewares/Third_Party/RealThread_RTOS_RT-Thread/src/kservice.c **** #ifdef RT_PRINTF_PRECISION
 952:Middlewares/Third_Party/RealThread_RTOS_RT-Thread/src/kservice.c ****             str = print_number(str, end,
 953:Middlewares/Third_Party/RealThread_RTOS_RT-Thread/src/kservice.c ****                                (long)va_arg(args, void *),
 1891              		.loc 1 953 0
 1892 0244 059B     		ldr	r3, [sp, #20]
 1893 0246 1A1D     		adds	r2, r3, #4
 1894 0248 0592     		str	r2, [sp, #20]
 1895 024a 1A68     		ldr	r2, [r3]
 952:Middlewares/Third_Party/RealThread_RTOS_RT-Thread/src/kservice.c ****                                (long)va_arg(args, void *),
 1896              		.loc 1 952 0
 1897 024c 0295     		str	r5, [sp, #8]
 1898 024e CDF80490 		str	r9, [sp, #4]
 1899 0252 0096     		str	r6, [sp]
 1900 0254 1023     		movs	r3, #16
 1901 0256 4146     		mov	r1, r8
 1902              	.LVL263:
 1903 0258 3846     		mov	r0, r7
 1904 025a FFF7FEFF 		bl	print_number
 1905              	.LVL264:
 1906 025e 0746     		mov	r7, r0
 1907              	.LVL265:
 954:Middlewares/Third_Party/RealThread_RTOS_RT-Thread/src/kservice.c ****                                16, field_width, precision, flags);
 955:Middlewares/Third_Party/RealThread_RTOS_RT-Thread/src/kservice.c **** #else
 956:Middlewares/Third_Party/RealThread_RTOS_RT-Thread/src/kservice.c ****             str = print_number(str, end,
 957:Middlewares/Third_Party/RealThread_RTOS_RT-Thread/src/kservice.c ****                                (long)va_arg(args, void *),
 958:Middlewares/Third_Party/RealThread_RTOS_RT-Thread/src/kservice.c ****                                16, field_width, flags);
 959:Middlewares/Third_Party/RealThread_RTOS_RT-Thread/src/kservice.c **** #endif
 960:Middlewares/Third_Party/RealThread_RTOS_RT-Thread/src/kservice.c ****             continue;
 1908              		.loc 1 960 0
 1909 0260 DFE6     		b	.L163
 1910              	.LVL266:
 1911              	.L251:
 949:Middlewares/Third_Party/RealThread_RTOS_RT-Thread/src/kservice.c ****             }
ARM GAS  C:\Users\chuti\AppData\Local\Temp\cctMPljw.s 			page 55


 1912              		.loc 1 949 0
 1913 0262 45F00105 		orr	r5, r5, #1
 1914              	.LVL267:
 948:Middlewares/Third_Party/RealThread_RTOS_RT-Thread/src/kservice.c ****                 flags |= ZEROPAD;
 1915              		.loc 1 948 0
 1916 0266 0826     		movs	r6, #8
 1917 0268 ECE7     		b	.L212
 1918              	.LVL268:
 1919              	.L182:
 961:Middlewares/Third_Party/RealThread_RTOS_RT-Thread/src/kservice.c **** 
 962:Middlewares/Third_Party/RealThread_RTOS_RT-Thread/src/kservice.c ****         case '%':
 963:Middlewares/Third_Party/RealThread_RTOS_RT-Thread/src/kservice.c ****             if (str < end) *str = '%';
 1920              		.loc 1 963 0
 1921 026a 4745     		cmp	r7, r8
 1922 026c 01D2     		bcs	.L213
 1923              		.loc 1 963 0 is_stmt 0 discriminator 1
 1924 026e 2523     		movs	r3, #37
 1925 0270 3B70     		strb	r3, [r7]
 1926              	.L213:
 964:Middlewares/Third_Party/RealThread_RTOS_RT-Thread/src/kservice.c ****             ++ str;
 1927              		.loc 1 964 0 is_stmt 1
 1928 0272 0137     		adds	r7, r7, #1
 1929              	.LVL269:
 965:Middlewares/Third_Party/RealThread_RTOS_RT-Thread/src/kservice.c ****             continue;
 1930              		.loc 1 965 0
 1931 0274 D5E6     		b	.L163
 1932              	.L187:
 1933              	.LVL270:
 966:Middlewares/Third_Party/RealThread_RTOS_RT-Thread/src/kservice.c **** 
 967:Middlewares/Third_Party/RealThread_RTOS_RT-Thread/src/kservice.c ****         /* integer number formats - set up the flags and "break" */
 968:Middlewares/Third_Party/RealThread_RTOS_RT-Thread/src/kservice.c ****         case 'o':
 969:Middlewares/Third_Party/RealThread_RTOS_RT-Thread/src/kservice.c ****             base = 8;
 1934              		.loc 1 969 0
 1935 0276 0823     		movs	r3, #8
 970:Middlewares/Third_Party/RealThread_RTOS_RT-Thread/src/kservice.c ****             break;
 1936              		.loc 1 970 0
 1937 0278 19E0     		b	.L191
 1938              	.LVL271:
 1939              	.L184:
 971:Middlewares/Third_Party/RealThread_RTOS_RT-Thread/src/kservice.c **** 
 972:Middlewares/Third_Party/RealThread_RTOS_RT-Thread/src/kservice.c ****         case 'X':
 973:Middlewares/Third_Party/RealThread_RTOS_RT-Thread/src/kservice.c ****             flags |= LARGE;
 1940              		.loc 1 973 0
 1941 027a 45F04005 		orr	r5, r5, #64
 1942              	.LVL272:
 974:Middlewares/Third_Party/RealThread_RTOS_RT-Thread/src/kservice.c ****         case 'x':
 975:Middlewares/Third_Party/RealThread_RTOS_RT-Thread/src/kservice.c ****             base = 16;
 1943              		.loc 1 975 0
 1944 027e 1023     		movs	r3, #16
 1945 0280 15E0     		b	.L191
 1946              	.L186:
 976:Middlewares/Third_Party/RealThread_RTOS_RT-Thread/src/kservice.c ****             break;
 977:Middlewares/Third_Party/RealThread_RTOS_RT-Thread/src/kservice.c **** 
 978:Middlewares/Third_Party/RealThread_RTOS_RT-Thread/src/kservice.c ****         case 'd':
 979:Middlewares/Third_Party/RealThread_RTOS_RT-Thread/src/kservice.c ****         case 'i':
 980:Middlewares/Third_Party/RealThread_RTOS_RT-Thread/src/kservice.c ****             flags |= SIGN;
 1947              		.loc 1 980 0
ARM GAS  C:\Users\chuti\AppData\Local\Temp\cctMPljw.s 			page 56


 1948 0282 45F00205 		orr	r5, r5, #2
 1949              	.LVL273:
 886:Middlewares/Third_Party/RealThread_RTOS_RT-Thread/src/kservice.c **** 
 1950              		.loc 1 886 0
 1951 0286 0A23     		movs	r3, #10
 1952 0288 11E0     		b	.L191
 1953              	.L181:
 981:Middlewares/Third_Party/RealThread_RTOS_RT-Thread/src/kservice.c ****         case 'u':
 982:Middlewares/Third_Party/RealThread_RTOS_RT-Thread/src/kservice.c ****             break;
 983:Middlewares/Third_Party/RealThread_RTOS_RT-Thread/src/kservice.c **** 
 984:Middlewares/Third_Party/RealThread_RTOS_RT-Thread/src/kservice.c ****         default:
 985:Middlewares/Third_Party/RealThread_RTOS_RT-Thread/src/kservice.c ****             if (str < end) *str = '%';
 1954              		.loc 1 985 0
 1955 028a 4745     		cmp	r7, r8
 1956 028c 01D2     		bcs	.L214
 1957              		.loc 1 985 0 is_stmt 0 discriminator 1
 1958 028e 2523     		movs	r3, #37
 1959 0290 3B70     		strb	r3, [r7]
 1960              	.L214:
 986:Middlewares/Third_Party/RealThread_RTOS_RT-Thread/src/kservice.c ****             ++ str;
 1961              		.loc 1 986 0 is_stmt 1
 1962 0292 7A1C     		adds	r2, r7, #1
 1963              	.LVL274:
 987:Middlewares/Third_Party/RealThread_RTOS_RT-Thread/src/kservice.c **** 
 988:Middlewares/Third_Party/RealThread_RTOS_RT-Thread/src/kservice.c ****             if (*fmt)
 1964              		.loc 1 988 0
 1965 0294 2378     		ldrb	r3, [r4]	@ zero_extendqisi2
 1966 0296 23B1     		cbz	r3, .L215
 989:Middlewares/Third_Party/RealThread_RTOS_RT-Thread/src/kservice.c ****             {
 990:Middlewares/Third_Party/RealThread_RTOS_RT-Thread/src/kservice.c ****                 if (str < end) *str = *fmt;
 1967              		.loc 1 990 0
 1968 0298 4245     		cmp	r2, r8
 1969 029a 00D2     		bcs	.L216
 1970              		.loc 1 990 0 is_stmt 0 discriminator 1
 1971 029c 7B70     		strb	r3, [r7, #1]
 1972              	.L216:
 991:Middlewares/Third_Party/RealThread_RTOS_RT-Thread/src/kservice.c ****                 ++ str;
 1973              		.loc 1 991 0 is_stmt 1
 1974 029e 0237     		adds	r7, r7, #2
 1975              	.LVL275:
 1976 02a0 BFE6     		b	.L163
 1977              	.LVL276:
 1978              	.L215:
 992:Middlewares/Third_Party/RealThread_RTOS_RT-Thread/src/kservice.c ****             }
 993:Middlewares/Third_Party/RealThread_RTOS_RT-Thread/src/kservice.c ****             else
 994:Middlewares/Third_Party/RealThread_RTOS_RT-Thread/src/kservice.c ****             {
 995:Middlewares/Third_Party/RealThread_RTOS_RT-Thread/src/kservice.c ****                 -- fmt;
 1979              		.loc 1 995 0
 1980 02a2 013C     		subs	r4, r4, #1
 1981              	.LVL277:
 986:Middlewares/Third_Party/RealThread_RTOS_RT-Thread/src/kservice.c **** 
 1982              		.loc 1 986 0
 1983 02a4 1746     		mov	r7, r2
 1984              	.LVL278:
 996:Middlewares/Third_Party/RealThread_RTOS_RT-Thread/src/kservice.c ****             }
 997:Middlewares/Third_Party/RealThread_RTOS_RT-Thread/src/kservice.c ****             continue;
 1985              		.loc 1 997 0
ARM GAS  C:\Users\chuti\AppData\Local\Temp\cctMPljw.s 			page 57


 1986 02a6 BCE6     		b	.L163
 1987              	.L190:
 886:Middlewares/Third_Party/RealThread_RTOS_RT-Thread/src/kservice.c **** 
 1988              		.loc 1 886 0
 1989 02a8 0A23     		movs	r3, #10
 1990 02aa 00E0     		b	.L191
 1991              	.L233:
 975:Middlewares/Third_Party/RealThread_RTOS_RT-Thread/src/kservice.c ****             break;
 1992              		.loc 1 975 0
 1993 02ac 1023     		movs	r3, #16
 1994              	.LVL279:
 1995              	.L191:
 998:Middlewares/Third_Party/RealThread_RTOS_RT-Thread/src/kservice.c ****         }
 999:Middlewares/Third_Party/RealThread_RTOS_RT-Thread/src/kservice.c **** 
1000:Middlewares/Third_Party/RealThread_RTOS_RT-Thread/src/kservice.c **** #ifdef RT_PRINTF_LONGLONG
1001:Middlewares/Third_Party/RealThread_RTOS_RT-Thread/src/kservice.c ****         if (qualifier == 'L') num = va_arg(args, long long);
1002:Middlewares/Third_Party/RealThread_RTOS_RT-Thread/src/kservice.c ****         else if (qualifier == 'l')
1003:Middlewares/Third_Party/RealThread_RTOS_RT-Thread/src/kservice.c **** #else
1004:Middlewares/Third_Party/RealThread_RTOS_RT-Thread/src/kservice.c ****         if (qualifier == 'l')
 1996              		.loc 1 1004 0
 1997 02ae 6C29     		cmp	r1, #108
 1998 02b0 0FD0     		beq	.L252
1005:Middlewares/Third_Party/RealThread_RTOS_RT-Thread/src/kservice.c **** #endif
1006:Middlewares/Third_Party/RealThread_RTOS_RT-Thread/src/kservice.c ****         {
1007:Middlewares/Third_Party/RealThread_RTOS_RT-Thread/src/kservice.c ****             num = va_arg(args, rt_uint32_t);
1008:Middlewares/Third_Party/RealThread_RTOS_RT-Thread/src/kservice.c ****             if (flags & SIGN) num = (rt_int32_t)num;
1009:Middlewares/Third_Party/RealThread_RTOS_RT-Thread/src/kservice.c ****         }
1010:Middlewares/Third_Party/RealThread_RTOS_RT-Thread/src/kservice.c ****         else if (qualifier == 'h')
 1999              		.loc 1 1010 0
 2000 02b2 6829     		cmp	r1, #104
 2001 02b4 12D0     		beq	.L253
1011:Middlewares/Third_Party/RealThread_RTOS_RT-Thread/src/kservice.c ****         {
1012:Middlewares/Third_Party/RealThread_RTOS_RT-Thread/src/kservice.c ****             num = (rt_uint16_t)va_arg(args, rt_int32_t);
1013:Middlewares/Third_Party/RealThread_RTOS_RT-Thread/src/kservice.c ****             if (flags & SIGN) num = (rt_int16_t)num;
1014:Middlewares/Third_Party/RealThread_RTOS_RT-Thread/src/kservice.c ****         }
1015:Middlewares/Third_Party/RealThread_RTOS_RT-Thread/src/kservice.c ****         else
1016:Middlewares/Third_Party/RealThread_RTOS_RT-Thread/src/kservice.c ****         {
1017:Middlewares/Third_Party/RealThread_RTOS_RT-Thread/src/kservice.c ****             num = va_arg(args, rt_uint32_t);
 2002              		.loc 1 1017 0
 2003 02b6 059A     		ldr	r2, [sp, #20]
 2004 02b8 111D     		adds	r1, r2, #4
 2005              	.LVL280:
 2006 02ba 0591     		str	r1, [sp, #20]
 2007 02bc 1268     		ldr	r2, [r2]
 2008              	.L219:
 2009              	.LVL281:
1018:Middlewares/Third_Party/RealThread_RTOS_RT-Thread/src/kservice.c ****             if (flags & SIGN) num = (rt_int32_t)num;
1019:Middlewares/Third_Party/RealThread_RTOS_RT-Thread/src/kservice.c ****         }
1020:Middlewares/Third_Party/RealThread_RTOS_RT-Thread/src/kservice.c **** #ifdef RT_PRINTF_PRECISION
1021:Middlewares/Third_Party/RealThread_RTOS_RT-Thread/src/kservice.c ****         str = print_number(str, end, num, base, field_width, precision, flags);
 2010              		.loc 1 1021 0
 2011 02be 0295     		str	r5, [sp, #8]
 2012 02c0 CDF80490 		str	r9, [sp, #4]
 2013 02c4 0096     		str	r6, [sp]
 2014 02c6 4146     		mov	r1, r8
 2015 02c8 3846     		mov	r0, r7
 2016 02ca FFF7FEFF 		bl	print_number
ARM GAS  C:\Users\chuti\AppData\Local\Temp\cctMPljw.s 			page 58


 2017              	.LVL282:
 2018 02ce 0746     		mov	r7, r0
 2019              	.LVL283:
 2020 02d0 A7E6     		b	.L163
 2021              	.LVL284:
 2022              	.L252:
1007:Middlewares/Third_Party/RealThread_RTOS_RT-Thread/src/kservice.c ****             if (flags & SIGN) num = (rt_int32_t)num;
 2023              		.loc 1 1007 0
 2024 02d2 059A     		ldr	r2, [sp, #20]
 2025 02d4 111D     		adds	r1, r2, #4
 2026              	.LVL285:
 2027 02d6 0591     		str	r1, [sp, #20]
 2028 02d8 1268     		ldr	r2, [r2]
 2029 02da F0E7     		b	.L219
 2030              	.LVL286:
 2031              	.L253:
1012:Middlewares/Third_Party/RealThread_RTOS_RT-Thread/src/kservice.c ****             if (flags & SIGN) num = (rt_int16_t)num;
 2032              		.loc 1 1012 0
 2033 02dc 059A     		ldr	r2, [sp, #20]
 2034 02de 111D     		adds	r1, r2, #4
 2035              	.LVL287:
 2036 02e0 0591     		str	r1, [sp, #20]
 2037 02e2 1168     		ldr	r1, [r2]
 2038 02e4 8AB2     		uxth	r2, r1
 2039              	.LVL288:
1013:Middlewares/Third_Party/RealThread_RTOS_RT-Thread/src/kservice.c ****         }
 2040              		.loc 1 1013 0
 2041 02e6 15F0020F 		tst	r5, #2
 2042 02ea E8D0     		beq	.L219
1013:Middlewares/Third_Party/RealThread_RTOS_RT-Thread/src/kservice.c ****         }
 2043              		.loc 1 1013 0 is_stmt 0 discriminator 1
 2044 02ec 0AB2     		sxth	r2, r1
 2045              	.LVL289:
 2046 02ee E6E7     		b	.L219
 2047              	.LVL290:
 2048              	.L239:
1022:Middlewares/Third_Party/RealThread_RTOS_RT-Thread/src/kservice.c **** #else
1023:Middlewares/Third_Party/RealThread_RTOS_RT-Thread/src/kservice.c ****         str = print_number(str, end, num, base, field_width, flags);
1024:Middlewares/Third_Party/RealThread_RTOS_RT-Thread/src/kservice.c **** #endif
1025:Middlewares/Third_Party/RealThread_RTOS_RT-Thread/src/kservice.c ****     }
1026:Middlewares/Third_Party/RealThread_RTOS_RT-Thread/src/kservice.c **** 
1027:Middlewares/Third_Party/RealThread_RTOS_RT-Thread/src/kservice.c ****     if (size > 0)
 2049              		.loc 1 1027 0 is_stmt 1
 2050 02f0 049B     		ldr	r3, [sp, #16]
 2051 02f2 23B1     		cbz	r3, .L223
1028:Middlewares/Third_Party/RealThread_RTOS_RT-Thread/src/kservice.c ****     {
1029:Middlewares/Third_Party/RealThread_RTOS_RT-Thread/src/kservice.c ****         if (str < end) *str = '\0';
 2052              		.loc 1 1029 0
 2053 02f4 4745     		cmp	r7, r8
 2054 02f6 07D3     		bcc	.L254
1030:Middlewares/Third_Party/RealThread_RTOS_RT-Thread/src/kservice.c ****         else
1031:Middlewares/Third_Party/RealThread_RTOS_RT-Thread/src/kservice.c ****         {
1032:Middlewares/Third_Party/RealThread_RTOS_RT-Thread/src/kservice.c ****             end[-1] = '\0';
 2055              		.loc 1 1032 0
 2056 02f8 0023     		movs	r3, #0
 2057 02fa 08F8013C 		strb	r3, [r8, #-1]
 2058              	.L223:
ARM GAS  C:\Users\chuti\AppData\Local\Temp\cctMPljw.s 			page 59


1033:Middlewares/Third_Party/RealThread_RTOS_RT-Thread/src/kservice.c ****         }
1034:Middlewares/Third_Party/RealThread_RTOS_RT-Thread/src/kservice.c ****     }
1035:Middlewares/Third_Party/RealThread_RTOS_RT-Thread/src/kservice.c **** 
1036:Middlewares/Third_Party/RealThread_RTOS_RT-Thread/src/kservice.c ****     /* the trailing null byte doesn't count towards the total
1037:Middlewares/Third_Party/RealThread_RTOS_RT-Thread/src/kservice.c ****     * ++str;
1038:Middlewares/Third_Party/RealThread_RTOS_RT-Thread/src/kservice.c ****     */
1039:Middlewares/Third_Party/RealThread_RTOS_RT-Thread/src/kservice.c ****     return str - buf;
1040:Middlewares/Third_Party/RealThread_RTOS_RT-Thread/src/kservice.c **** }
 2059              		.loc 1 1040 0
 2060 02fe A7EB0A00 		sub	r0, r7, r10
 2061 0302 07B0     		add	sp, sp, #28
 2062              	.LCFI27:
 2063              		.cfi_remember_state
 2064              		.cfi_def_cfa_offset 36
 2065              		@ sp needed
 2066 0304 BDE8F08F 		pop	{r4, r5, r6, r7, r8, r9, r10, fp, pc}
 2067              	.LVL291:
 2068              	.L254:
 2069              	.LCFI28:
 2070              		.cfi_restore_state
1029:Middlewares/Third_Party/RealThread_RTOS_RT-Thread/src/kservice.c ****         else
 2071              		.loc 1 1029 0 discriminator 1
 2072 0308 0023     		movs	r3, #0
 2073 030a 3B70     		strb	r3, [r7]
 2074 030c F7E7     		b	.L223
 2075              	.L256:
 2076 030e 00BF     		.align	2
 2077              	.L255:
 2078 0310 00000000 		.word	.LC0
 2079              		.cfi_endproc
 2080              	.LFE34:
 2082              		.section	.text.rt_snprintf,"ax",%progbits
 2083              		.align	1
 2084              		.global	rt_snprintf
 2085              		.syntax unified
 2086              		.thumb
 2087              		.thumb_func
 2088              		.fpu fpv4-sp-d16
 2090              	rt_snprintf:
 2091              	.LFB35:
1041:Middlewares/Third_Party/RealThread_RTOS_RT-Thread/src/kservice.c **** RTM_EXPORT(rt_vsnprintf);
1042:Middlewares/Third_Party/RealThread_RTOS_RT-Thread/src/kservice.c **** 
1043:Middlewares/Third_Party/RealThread_RTOS_RT-Thread/src/kservice.c **** /**
1044:Middlewares/Third_Party/RealThread_RTOS_RT-Thread/src/kservice.c ****  * This function will fill a formatted string to buffer
1045:Middlewares/Third_Party/RealThread_RTOS_RT-Thread/src/kservice.c ****  *
1046:Middlewares/Third_Party/RealThread_RTOS_RT-Thread/src/kservice.c ****  * @param buf the buffer to save formatted string
1047:Middlewares/Third_Party/RealThread_RTOS_RT-Thread/src/kservice.c ****  * @param size the size of buffer
1048:Middlewares/Third_Party/RealThread_RTOS_RT-Thread/src/kservice.c ****  * @param fmt the format
1049:Middlewares/Third_Party/RealThread_RTOS_RT-Thread/src/kservice.c ****  */
1050:Middlewares/Third_Party/RealThread_RTOS_RT-Thread/src/kservice.c **** rt_int32_t rt_snprintf(char *buf, rt_size_t size, const char *fmt, ...)
1051:Middlewares/Third_Party/RealThread_RTOS_RT-Thread/src/kservice.c **** {
 2092              		.loc 1 1051 0
 2093              		.cfi_startproc
 2094              		@ args = 4, pretend = 8, frame = 8
 2095              		@ frame_needed = 0, uses_anonymous_args = 1
 2096              	.LVL292:
 2097 0000 0CB4     		push	{r2, r3}
ARM GAS  C:\Users\chuti\AppData\Local\Temp\cctMPljw.s 			page 60


 2098              	.LCFI29:
 2099              		.cfi_def_cfa_offset 8
 2100              		.cfi_offset 2, -8
 2101              		.cfi_offset 3, -4
 2102 0002 00B5     		push	{lr}
 2103              	.LCFI30:
 2104              		.cfi_def_cfa_offset 12
 2105              		.cfi_offset 14, -12
 2106 0004 83B0     		sub	sp, sp, #12
 2107              	.LCFI31:
 2108              		.cfi_def_cfa_offset 24
 2109 0006 04AB     		add	r3, sp, #16
 2110 0008 53F8042B 		ldr	r2, [r3], #4
1052:Middlewares/Third_Party/RealThread_RTOS_RT-Thread/src/kservice.c ****     rt_int32_t n;
1053:Middlewares/Third_Party/RealThread_RTOS_RT-Thread/src/kservice.c ****     va_list args;
1054:Middlewares/Third_Party/RealThread_RTOS_RT-Thread/src/kservice.c **** 
1055:Middlewares/Third_Party/RealThread_RTOS_RT-Thread/src/kservice.c ****     va_start(args, fmt);
 2111              		.loc 1 1055 0
 2112 000c 0193     		str	r3, [sp, #4]
1056:Middlewares/Third_Party/RealThread_RTOS_RT-Thread/src/kservice.c ****     n = rt_vsnprintf(buf, size, fmt, args);
 2113              		.loc 1 1056 0
 2114 000e FFF7FEFF 		bl	rt_vsnprintf
 2115              	.LVL293:
1057:Middlewares/Third_Party/RealThread_RTOS_RT-Thread/src/kservice.c ****     va_end(args);
1058:Middlewares/Third_Party/RealThread_RTOS_RT-Thread/src/kservice.c **** 
1059:Middlewares/Third_Party/RealThread_RTOS_RT-Thread/src/kservice.c ****     return n;
1060:Middlewares/Third_Party/RealThread_RTOS_RT-Thread/src/kservice.c **** }
 2116              		.loc 1 1060 0
 2117 0012 03B0     		add	sp, sp, #12
 2118              	.LCFI32:
 2119              		.cfi_def_cfa_offset 12
 2120              		@ sp needed
 2121 0014 5DF804EB 		ldr	lr, [sp], #4
 2122              	.LCFI33:
 2123              		.cfi_restore 14
 2124              		.cfi_def_cfa_offset 8
 2125 0018 02B0     		add	sp, sp, #8
 2126              	.LCFI34:
 2127              		.cfi_restore 3
 2128              		.cfi_restore 2
 2129              		.cfi_def_cfa_offset 0
 2130 001a 7047     		bx	lr
 2131              		.cfi_endproc
 2132              	.LFE35:
 2134              		.section	.text.rt_vsprintf,"ax",%progbits
 2135              		.align	1
 2136              		.global	rt_vsprintf
 2137              		.syntax unified
 2138              		.thumb
 2139              		.thumb_func
 2140              		.fpu fpv4-sp-d16
 2142              	rt_vsprintf:
 2143              	.LFB36:
1061:Middlewares/Third_Party/RealThread_RTOS_RT-Thread/src/kservice.c **** RTM_EXPORT(rt_snprintf);
1062:Middlewares/Third_Party/RealThread_RTOS_RT-Thread/src/kservice.c **** 
1063:Middlewares/Third_Party/RealThread_RTOS_RT-Thread/src/kservice.c **** /**
1064:Middlewares/Third_Party/RealThread_RTOS_RT-Thread/src/kservice.c ****  * This function will fill a formatted string to buffer
ARM GAS  C:\Users\chuti\AppData\Local\Temp\cctMPljw.s 			page 61


1065:Middlewares/Third_Party/RealThread_RTOS_RT-Thread/src/kservice.c ****  *
1066:Middlewares/Third_Party/RealThread_RTOS_RT-Thread/src/kservice.c ****  * @param buf the buffer to save formatted string
1067:Middlewares/Third_Party/RealThread_RTOS_RT-Thread/src/kservice.c ****  * @param arg_ptr the arg_ptr
1068:Middlewares/Third_Party/RealThread_RTOS_RT-Thread/src/kservice.c ****  * @param format the format
1069:Middlewares/Third_Party/RealThread_RTOS_RT-Thread/src/kservice.c ****  */
1070:Middlewares/Third_Party/RealThread_RTOS_RT-Thread/src/kservice.c **** rt_int32_t rt_vsprintf(char *buf, const char *format, va_list arg_ptr)
1071:Middlewares/Third_Party/RealThread_RTOS_RT-Thread/src/kservice.c **** {
 2144              		.loc 1 1071 0
 2145              		.cfi_startproc
 2146              		@ args = 0, pretend = 0, frame = 0
 2147              		@ frame_needed = 0, uses_anonymous_args = 0
 2148              	.LVL294:
 2149 0000 08B5     		push	{r3, lr}
 2150              	.LCFI35:
 2151              		.cfi_def_cfa_offset 8
 2152              		.cfi_offset 3, -8
 2153              		.cfi_offset 14, -4
1072:Middlewares/Third_Party/RealThread_RTOS_RT-Thread/src/kservice.c ****     return rt_vsnprintf(buf, (rt_size_t) - 1, format, arg_ptr);
 2154              		.loc 1 1072 0
 2155 0002 1346     		mov	r3, r2
 2156 0004 0A46     		mov	r2, r1
 2157              	.LVL295:
 2158 0006 4FF0FF31 		mov	r1, #-1
 2159              	.LVL296:
 2160 000a FFF7FEFF 		bl	rt_vsnprintf
 2161              	.LVL297:
1073:Middlewares/Third_Party/RealThread_RTOS_RT-Thread/src/kservice.c **** }
 2162              		.loc 1 1073 0
 2163 000e 08BD     		pop	{r3, pc}
 2164              		.cfi_endproc
 2165              	.LFE36:
 2167              		.section	.text.rt_sprintf,"ax",%progbits
 2168              		.align	1
 2169              		.global	rt_sprintf
 2170              		.syntax unified
 2171              		.thumb
 2172              		.thumb_func
 2173              		.fpu fpv4-sp-d16
 2175              	rt_sprintf:
 2176              	.LFB37:
1074:Middlewares/Third_Party/RealThread_RTOS_RT-Thread/src/kservice.c **** RTM_EXPORT(rt_vsprintf);
1075:Middlewares/Third_Party/RealThread_RTOS_RT-Thread/src/kservice.c **** 
1076:Middlewares/Third_Party/RealThread_RTOS_RT-Thread/src/kservice.c **** /**
1077:Middlewares/Third_Party/RealThread_RTOS_RT-Thread/src/kservice.c ****  * This function will fill a formatted string to buffer
1078:Middlewares/Third_Party/RealThread_RTOS_RT-Thread/src/kservice.c ****  *
1079:Middlewares/Third_Party/RealThread_RTOS_RT-Thread/src/kservice.c ****  * @param buf the buffer to save formatted string
1080:Middlewares/Third_Party/RealThread_RTOS_RT-Thread/src/kservice.c ****  * @param format the format
1081:Middlewares/Third_Party/RealThread_RTOS_RT-Thread/src/kservice.c ****  */
1082:Middlewares/Third_Party/RealThread_RTOS_RT-Thread/src/kservice.c **** rt_int32_t rt_sprintf(char *buf, const char *format, ...)
1083:Middlewares/Third_Party/RealThread_RTOS_RT-Thread/src/kservice.c **** {
 2177              		.loc 1 1083 0
 2178              		.cfi_startproc
 2179              		@ args = 4, pretend = 12, frame = 8
 2180              		@ frame_needed = 0, uses_anonymous_args = 1
 2181              	.LVL298:
 2182 0000 0EB4     		push	{r1, r2, r3}
 2183              	.LCFI36:
ARM GAS  C:\Users\chuti\AppData\Local\Temp\cctMPljw.s 			page 62


 2184              		.cfi_def_cfa_offset 12
 2185              		.cfi_offset 1, -12
 2186              		.cfi_offset 2, -8
 2187              		.cfi_offset 3, -4
 2188 0002 00B5     		push	{lr}
 2189              	.LCFI37:
 2190              		.cfi_def_cfa_offset 16
 2191              		.cfi_offset 14, -16
 2192 0004 82B0     		sub	sp, sp, #8
 2193              	.LCFI38:
 2194              		.cfi_def_cfa_offset 24
 2195 0006 03AA     		add	r2, sp, #12
 2196 0008 52F8041B 		ldr	r1, [r2], #4
1084:Middlewares/Third_Party/RealThread_RTOS_RT-Thread/src/kservice.c ****     rt_int32_t n;
1085:Middlewares/Third_Party/RealThread_RTOS_RT-Thread/src/kservice.c ****     va_list arg_ptr;
1086:Middlewares/Third_Party/RealThread_RTOS_RT-Thread/src/kservice.c **** 
1087:Middlewares/Third_Party/RealThread_RTOS_RT-Thread/src/kservice.c ****     va_start(arg_ptr, format);
 2197              		.loc 1 1087 0
 2198 000c 0192     		str	r2, [sp, #4]
1088:Middlewares/Third_Party/RealThread_RTOS_RT-Thread/src/kservice.c ****     n = rt_vsprintf(buf, format, arg_ptr);
 2199              		.loc 1 1088 0
 2200 000e FFF7FEFF 		bl	rt_vsprintf
 2201              	.LVL299:
1089:Middlewares/Third_Party/RealThread_RTOS_RT-Thread/src/kservice.c ****     va_end(arg_ptr);
1090:Middlewares/Third_Party/RealThread_RTOS_RT-Thread/src/kservice.c **** 
1091:Middlewares/Third_Party/RealThread_RTOS_RT-Thread/src/kservice.c ****     return n;
1092:Middlewares/Third_Party/RealThread_RTOS_RT-Thread/src/kservice.c **** }
 2202              		.loc 1 1092 0
 2203 0012 02B0     		add	sp, sp, #8
 2204              	.LCFI39:
 2205              		.cfi_def_cfa_offset 16
 2206              		@ sp needed
 2207 0014 5DF804EB 		ldr	lr, [sp], #4
 2208              	.LCFI40:
 2209              		.cfi_restore 14
 2210              		.cfi_def_cfa_offset 12
 2211 0018 03B0     		add	sp, sp, #12
 2212              	.LCFI41:
 2213              		.cfi_restore 3
 2214              		.cfi_restore 2
 2215              		.cfi_restore 1
 2216              		.cfi_def_cfa_offset 0
 2217 001a 7047     		bx	lr
 2218              		.cfi_endproc
 2219              	.LFE37:
 2221              		.section	.text.rt_hw_console_output,"ax",%progbits
 2222              		.align	1
 2223              		.weak	rt_hw_console_output
 2224              		.syntax unified
 2225              		.thumb
 2226              		.thumb_func
 2227              		.fpu fpv4-sp-d16
 2229              	rt_hw_console_output:
 2230              	.LFB38:
1093:Middlewares/Third_Party/RealThread_RTOS_RT-Thread/src/kservice.c **** RTM_EXPORT(rt_sprintf);
1094:Middlewares/Third_Party/RealThread_RTOS_RT-Thread/src/kservice.c **** 
1095:Middlewares/Third_Party/RealThread_RTOS_RT-Thread/src/kservice.c **** #ifdef RT_USING_CONSOLE
ARM GAS  C:\Users\chuti\AppData\Local\Temp\cctMPljw.s 			page 63


1096:Middlewares/Third_Party/RealThread_RTOS_RT-Thread/src/kservice.c **** 
1097:Middlewares/Third_Party/RealThread_RTOS_RT-Thread/src/kservice.c **** #ifdef RT_USING_DEVICE
1098:Middlewares/Third_Party/RealThread_RTOS_RT-Thread/src/kservice.c **** /**
1099:Middlewares/Third_Party/RealThread_RTOS_RT-Thread/src/kservice.c ****  * This function returns the device using in console.
1100:Middlewares/Third_Party/RealThread_RTOS_RT-Thread/src/kservice.c ****  *
1101:Middlewares/Third_Party/RealThread_RTOS_RT-Thread/src/kservice.c ****  * @return the device using in console or RT_NULL
1102:Middlewares/Third_Party/RealThread_RTOS_RT-Thread/src/kservice.c ****  */
1103:Middlewares/Third_Party/RealThread_RTOS_RT-Thread/src/kservice.c **** rt_device_t rt_console_get_device(void)
1104:Middlewares/Third_Party/RealThread_RTOS_RT-Thread/src/kservice.c **** {
1105:Middlewares/Third_Party/RealThread_RTOS_RT-Thread/src/kservice.c ****     return _console_device;
1106:Middlewares/Third_Party/RealThread_RTOS_RT-Thread/src/kservice.c **** }
1107:Middlewares/Third_Party/RealThread_RTOS_RT-Thread/src/kservice.c **** RTM_EXPORT(rt_console_get_device);
1108:Middlewares/Third_Party/RealThread_RTOS_RT-Thread/src/kservice.c **** 
1109:Middlewares/Third_Party/RealThread_RTOS_RT-Thread/src/kservice.c **** /**
1110:Middlewares/Third_Party/RealThread_RTOS_RT-Thread/src/kservice.c ****  * This function will set a device as console device.
1111:Middlewares/Third_Party/RealThread_RTOS_RT-Thread/src/kservice.c ****  * After set a device to console, all output of rt_kprintf will be
1112:Middlewares/Third_Party/RealThread_RTOS_RT-Thread/src/kservice.c ****  * redirected to this new device.
1113:Middlewares/Third_Party/RealThread_RTOS_RT-Thread/src/kservice.c ****  *
1114:Middlewares/Third_Party/RealThread_RTOS_RT-Thread/src/kservice.c ****  * @param name the name of new console device
1115:Middlewares/Third_Party/RealThread_RTOS_RT-Thread/src/kservice.c ****  *
1116:Middlewares/Third_Party/RealThread_RTOS_RT-Thread/src/kservice.c ****  * @return the old console device handler
1117:Middlewares/Third_Party/RealThread_RTOS_RT-Thread/src/kservice.c ****  */
1118:Middlewares/Third_Party/RealThread_RTOS_RT-Thread/src/kservice.c **** rt_device_t rt_console_set_device(const char *name)
1119:Middlewares/Third_Party/RealThread_RTOS_RT-Thread/src/kservice.c **** {
1120:Middlewares/Third_Party/RealThread_RTOS_RT-Thread/src/kservice.c ****     rt_device_t new, old;
1121:Middlewares/Third_Party/RealThread_RTOS_RT-Thread/src/kservice.c **** 
1122:Middlewares/Third_Party/RealThread_RTOS_RT-Thread/src/kservice.c ****     /* save old device */
1123:Middlewares/Third_Party/RealThread_RTOS_RT-Thread/src/kservice.c ****     old = _console_device;
1124:Middlewares/Third_Party/RealThread_RTOS_RT-Thread/src/kservice.c **** 
1125:Middlewares/Third_Party/RealThread_RTOS_RT-Thread/src/kservice.c ****     /* find new console device */
1126:Middlewares/Third_Party/RealThread_RTOS_RT-Thread/src/kservice.c ****     new = rt_device_find(name);
1127:Middlewares/Third_Party/RealThread_RTOS_RT-Thread/src/kservice.c ****     if (new != RT_NULL)
1128:Middlewares/Third_Party/RealThread_RTOS_RT-Thread/src/kservice.c ****     {
1129:Middlewares/Third_Party/RealThread_RTOS_RT-Thread/src/kservice.c ****         if (_console_device != RT_NULL)
1130:Middlewares/Third_Party/RealThread_RTOS_RT-Thread/src/kservice.c ****         {
1131:Middlewares/Third_Party/RealThread_RTOS_RT-Thread/src/kservice.c ****             /* close old console device */
1132:Middlewares/Third_Party/RealThread_RTOS_RT-Thread/src/kservice.c ****             rt_device_close(_console_device);
1133:Middlewares/Third_Party/RealThread_RTOS_RT-Thread/src/kservice.c ****         }
1134:Middlewares/Third_Party/RealThread_RTOS_RT-Thread/src/kservice.c **** 
1135:Middlewares/Third_Party/RealThread_RTOS_RT-Thread/src/kservice.c ****         /* set new console device */
1136:Middlewares/Third_Party/RealThread_RTOS_RT-Thread/src/kservice.c ****         rt_device_open(new, RT_DEVICE_OFLAG_RDWR | RT_DEVICE_FLAG_STREAM);
1137:Middlewares/Third_Party/RealThread_RTOS_RT-Thread/src/kservice.c ****         _console_device = new;
1138:Middlewares/Third_Party/RealThread_RTOS_RT-Thread/src/kservice.c ****     }
1139:Middlewares/Third_Party/RealThread_RTOS_RT-Thread/src/kservice.c **** 
1140:Middlewares/Third_Party/RealThread_RTOS_RT-Thread/src/kservice.c ****     return old;
1141:Middlewares/Third_Party/RealThread_RTOS_RT-Thread/src/kservice.c **** }
1142:Middlewares/Third_Party/RealThread_RTOS_RT-Thread/src/kservice.c **** RTM_EXPORT(rt_console_set_device);
1143:Middlewares/Third_Party/RealThread_RTOS_RT-Thread/src/kservice.c **** #endif
1144:Middlewares/Third_Party/RealThread_RTOS_RT-Thread/src/kservice.c **** 
1145:Middlewares/Third_Party/RealThread_RTOS_RT-Thread/src/kservice.c **** RT_WEAK void rt_hw_console_output(const char *str)
1146:Middlewares/Third_Party/RealThread_RTOS_RT-Thread/src/kservice.c **** {
 2231              		.loc 1 1146 0
 2232              		.cfi_startproc
 2233              		@ args = 0, pretend = 0, frame = 0
 2234              		@ frame_needed = 0, uses_anonymous_args = 0
 2235              		@ link register save eliminated.
 2236              	.LVL300:
ARM GAS  C:\Users\chuti\AppData\Local\Temp\cctMPljw.s 			page 64


1147:Middlewares/Third_Party/RealThread_RTOS_RT-Thread/src/kservice.c ****     /* empty console output */
1148:Middlewares/Third_Party/RealThread_RTOS_RT-Thread/src/kservice.c **** }
 2237              		.loc 1 1148 0
 2238 0000 7047     		bx	lr
 2239              		.cfi_endproc
 2240              	.LFE38:
 2242              		.section	.text.rt_kputs,"ax",%progbits
 2243              		.align	1
 2244              		.global	rt_kputs
 2245              		.syntax unified
 2246              		.thumb
 2247              		.thumb_func
 2248              		.fpu fpv4-sp-d16
 2250              	rt_kputs:
 2251              	.LFB39:
1149:Middlewares/Third_Party/RealThread_RTOS_RT-Thread/src/kservice.c **** RTM_EXPORT(rt_hw_console_output);
1150:Middlewares/Third_Party/RealThread_RTOS_RT-Thread/src/kservice.c **** 
1151:Middlewares/Third_Party/RealThread_RTOS_RT-Thread/src/kservice.c **** /**
1152:Middlewares/Third_Party/RealThread_RTOS_RT-Thread/src/kservice.c ****  * This function will put string to the console.
1153:Middlewares/Third_Party/RealThread_RTOS_RT-Thread/src/kservice.c ****  *
1154:Middlewares/Third_Party/RealThread_RTOS_RT-Thread/src/kservice.c ****  * @param str the string output to the console.
1155:Middlewares/Third_Party/RealThread_RTOS_RT-Thread/src/kservice.c ****  */
1156:Middlewares/Third_Party/RealThread_RTOS_RT-Thread/src/kservice.c **** void rt_kputs(const char *str)
1157:Middlewares/Third_Party/RealThread_RTOS_RT-Thread/src/kservice.c **** {
 2252              		.loc 1 1157 0
 2253              		.cfi_startproc
 2254              		@ args = 0, pretend = 0, frame = 0
 2255              		@ frame_needed = 0, uses_anonymous_args = 0
 2256              	.LVL301:
1158:Middlewares/Third_Party/RealThread_RTOS_RT-Thread/src/kservice.c ****     if (!str) return;
 2257              		.loc 1 1158 0
 2258 0000 18B1     		cbz	r0, .L267
1157:Middlewares/Third_Party/RealThread_RTOS_RT-Thread/src/kservice.c ****     if (!str) return;
 2259              		.loc 1 1157 0
 2260 0002 08B5     		push	{r3, lr}
 2261              	.LCFI42:
 2262              		.cfi_def_cfa_offset 8
 2263              		.cfi_offset 3, -8
 2264              		.cfi_offset 14, -4
1159:Middlewares/Third_Party/RealThread_RTOS_RT-Thread/src/kservice.c **** 
1160:Middlewares/Third_Party/RealThread_RTOS_RT-Thread/src/kservice.c **** #ifdef RT_USING_DEVICE
1161:Middlewares/Third_Party/RealThread_RTOS_RT-Thread/src/kservice.c ****     if (_console_device == RT_NULL)
1162:Middlewares/Third_Party/RealThread_RTOS_RT-Thread/src/kservice.c ****     {
1163:Middlewares/Third_Party/RealThread_RTOS_RT-Thread/src/kservice.c ****         rt_hw_console_output(str);
1164:Middlewares/Third_Party/RealThread_RTOS_RT-Thread/src/kservice.c ****     }
1165:Middlewares/Third_Party/RealThread_RTOS_RT-Thread/src/kservice.c ****     else
1166:Middlewares/Third_Party/RealThread_RTOS_RT-Thread/src/kservice.c ****     {
1167:Middlewares/Third_Party/RealThread_RTOS_RT-Thread/src/kservice.c ****         rt_uint16_t old_flag = _console_device->open_flag;
1168:Middlewares/Third_Party/RealThread_RTOS_RT-Thread/src/kservice.c **** 
1169:Middlewares/Third_Party/RealThread_RTOS_RT-Thread/src/kservice.c ****         _console_device->open_flag |= RT_DEVICE_FLAG_STREAM;
1170:Middlewares/Third_Party/RealThread_RTOS_RT-Thread/src/kservice.c ****         rt_device_write(_console_device, 0, str, rt_strlen(str));
1171:Middlewares/Third_Party/RealThread_RTOS_RT-Thread/src/kservice.c ****         _console_device->open_flag = old_flag;
1172:Middlewares/Third_Party/RealThread_RTOS_RT-Thread/src/kservice.c ****     }
1173:Middlewares/Third_Party/RealThread_RTOS_RT-Thread/src/kservice.c **** #else
1174:Middlewares/Third_Party/RealThread_RTOS_RT-Thread/src/kservice.c ****     rt_hw_console_output(str);
 2265              		.loc 1 1174 0
 2266 0004 FFF7FEFF 		bl	rt_hw_console_output
ARM GAS  C:\Users\chuti\AppData\Local\Temp\cctMPljw.s 			page 65


 2267              	.LVL302:
1175:Middlewares/Third_Party/RealThread_RTOS_RT-Thread/src/kservice.c **** #endif
1176:Middlewares/Third_Party/RealThread_RTOS_RT-Thread/src/kservice.c **** }
 2268              		.loc 1 1176 0
 2269 0008 08BD     		pop	{r3, pc}
 2270              	.LVL303:
 2271              	.L267:
 2272              	.LCFI43:
 2273              		.cfi_def_cfa_offset 0
 2274              		.cfi_restore 3
 2275              		.cfi_restore 14
 2276 000a 7047     		bx	lr
 2277              		.cfi_endproc
 2278              	.LFE39:
 2280              		.section	.text.rt_kprintf,"ax",%progbits
 2281              		.align	1
 2282              		.global	rt_kprintf
 2283              		.syntax unified
 2284              		.thumb
 2285              		.thumb_func
 2286              		.fpu fpv4-sp-d16
 2288              	rt_kprintf:
 2289              	.LFB40:
1177:Middlewares/Third_Party/RealThread_RTOS_RT-Thread/src/kservice.c **** 
1178:Middlewares/Third_Party/RealThread_RTOS_RT-Thread/src/kservice.c **** /**
1179:Middlewares/Third_Party/RealThread_RTOS_RT-Thread/src/kservice.c ****  * This function will print a formatted string on system console
1180:Middlewares/Third_Party/RealThread_RTOS_RT-Thread/src/kservice.c ****  *
1181:Middlewares/Third_Party/RealThread_RTOS_RT-Thread/src/kservice.c ****  * @param fmt the format
1182:Middlewares/Third_Party/RealThread_RTOS_RT-Thread/src/kservice.c ****  */
1183:Middlewares/Third_Party/RealThread_RTOS_RT-Thread/src/kservice.c **** void rt_kprintf(const char *fmt, ...)
1184:Middlewares/Third_Party/RealThread_RTOS_RT-Thread/src/kservice.c **** {
 2290              		.loc 1 1184 0
 2291              		.cfi_startproc
 2292              		@ args = 4, pretend = 16, frame = 8
 2293              		@ frame_needed = 0, uses_anonymous_args = 1
 2294              	.LVL304:
 2295 0000 0FB4     		push	{r0, r1, r2, r3}
 2296              	.LCFI44:
 2297              		.cfi_def_cfa_offset 16
 2298              		.cfi_offset 0, -16
 2299              		.cfi_offset 1, -12
 2300              		.cfi_offset 2, -8
 2301              		.cfi_offset 3, -4
 2302 0002 10B5     		push	{r4, lr}
 2303              	.LCFI45:
 2304              		.cfi_def_cfa_offset 24
 2305              		.cfi_offset 4, -24
 2306              		.cfi_offset 14, -20
 2307 0004 82B0     		sub	sp, sp, #8
 2308              	.LCFI46:
 2309              		.cfi_def_cfa_offset 32
 2310 0006 04AB     		add	r3, sp, #16
 2311 0008 53F8042B 		ldr	r2, [r3], #4
1185:Middlewares/Third_Party/RealThread_RTOS_RT-Thread/src/kservice.c ****     va_list args;
1186:Middlewares/Third_Party/RealThread_RTOS_RT-Thread/src/kservice.c ****     rt_size_t length;
1187:Middlewares/Third_Party/RealThread_RTOS_RT-Thread/src/kservice.c ****     static char rt_log_buf[RT_CONSOLEBUF_SIZE];
1188:Middlewares/Third_Party/RealThread_RTOS_RT-Thread/src/kservice.c **** 
ARM GAS  C:\Users\chuti\AppData\Local\Temp\cctMPljw.s 			page 66


1189:Middlewares/Third_Party/RealThread_RTOS_RT-Thread/src/kservice.c ****     va_start(args, fmt);
 2312              		.loc 1 1189 0
 2313 000c 0193     		str	r3, [sp, #4]
1190:Middlewares/Third_Party/RealThread_RTOS_RT-Thread/src/kservice.c ****     /* the return value of vsnprintf is the number of bytes that would be
1191:Middlewares/Third_Party/RealThread_RTOS_RT-Thread/src/kservice.c ****      * written to buffer had if the size of the buffer been sufficiently
1192:Middlewares/Third_Party/RealThread_RTOS_RT-Thread/src/kservice.c ****      * large excluding the terminating null byte. If the output string
1193:Middlewares/Third_Party/RealThread_RTOS_RT-Thread/src/kservice.c ****      * would be larger than the rt_log_buf, we have to adjust the output
1194:Middlewares/Third_Party/RealThread_RTOS_RT-Thread/src/kservice.c ****      * length. */
1195:Middlewares/Third_Party/RealThread_RTOS_RT-Thread/src/kservice.c ****     length = rt_vsnprintf(rt_log_buf, sizeof(rt_log_buf) - 1, fmt, args);
 2314              		.loc 1 1195 0
 2315 000e 064C     		ldr	r4, .L272
 2316 0010 7F21     		movs	r1, #127
 2317 0012 2046     		mov	r0, r4
 2318 0014 FFF7FEFF 		bl	rt_vsnprintf
 2319              	.LVL305:
1196:Middlewares/Third_Party/RealThread_RTOS_RT-Thread/src/kservice.c ****     if (length > RT_CONSOLEBUF_SIZE - 1)
1197:Middlewares/Third_Party/RealThread_RTOS_RT-Thread/src/kservice.c ****         length = RT_CONSOLEBUF_SIZE - 1;
1198:Middlewares/Third_Party/RealThread_RTOS_RT-Thread/src/kservice.c **** #ifdef RT_USING_DEVICE
1199:Middlewares/Third_Party/RealThread_RTOS_RT-Thread/src/kservice.c ****     if (_console_device == RT_NULL)
1200:Middlewares/Third_Party/RealThread_RTOS_RT-Thread/src/kservice.c ****     {
1201:Middlewares/Third_Party/RealThread_RTOS_RT-Thread/src/kservice.c ****         rt_hw_console_output(rt_log_buf);
1202:Middlewares/Third_Party/RealThread_RTOS_RT-Thread/src/kservice.c ****     }
1203:Middlewares/Third_Party/RealThread_RTOS_RT-Thread/src/kservice.c ****     else
1204:Middlewares/Third_Party/RealThread_RTOS_RT-Thread/src/kservice.c ****     {
1205:Middlewares/Third_Party/RealThread_RTOS_RT-Thread/src/kservice.c ****         rt_uint16_t old_flag = _console_device->open_flag;
1206:Middlewares/Third_Party/RealThread_RTOS_RT-Thread/src/kservice.c **** 
1207:Middlewares/Third_Party/RealThread_RTOS_RT-Thread/src/kservice.c ****         _console_device->open_flag |= RT_DEVICE_FLAG_STREAM;
1208:Middlewares/Third_Party/RealThread_RTOS_RT-Thread/src/kservice.c ****         rt_device_write(_console_device, 0, rt_log_buf, length);
1209:Middlewares/Third_Party/RealThread_RTOS_RT-Thread/src/kservice.c ****         _console_device->open_flag = old_flag;
1210:Middlewares/Third_Party/RealThread_RTOS_RT-Thread/src/kservice.c ****     }
1211:Middlewares/Third_Party/RealThread_RTOS_RT-Thread/src/kservice.c **** #else
1212:Middlewares/Third_Party/RealThread_RTOS_RT-Thread/src/kservice.c ****     rt_hw_console_output(rt_log_buf);
 2320              		.loc 1 1212 0
 2321 0018 2046     		mov	r0, r4
 2322 001a FFF7FEFF 		bl	rt_hw_console_output
 2323              	.LVL306:
1213:Middlewares/Third_Party/RealThread_RTOS_RT-Thread/src/kservice.c **** #endif
1214:Middlewares/Third_Party/RealThread_RTOS_RT-Thread/src/kservice.c ****     va_end(args);
1215:Middlewares/Third_Party/RealThread_RTOS_RT-Thread/src/kservice.c **** }
 2324              		.loc 1 1215 0
 2325 001e 02B0     		add	sp, sp, #8
 2326              	.LCFI47:
 2327              		.cfi_def_cfa_offset 24
 2328              		@ sp needed
 2329 0020 BDE81040 		pop	{r4, lr}
 2330              	.LCFI48:
 2331              		.cfi_restore 14
 2332              		.cfi_restore 4
 2333              		.cfi_def_cfa_offset 16
 2334 0024 04B0     		add	sp, sp, #16
 2335              	.LCFI49:
 2336              		.cfi_restore 3
 2337              		.cfi_restore 2
 2338              		.cfi_restore 1
 2339              		.cfi_restore 0
 2340              		.cfi_def_cfa_offset 0
 2341 0026 7047     		bx	lr
ARM GAS  C:\Users\chuti\AppData\Local\Temp\cctMPljw.s 			page 67


 2342              	.L273:
 2343              		.align	2
 2344              	.L272:
 2345 0028 00000000 		.word	.LANCHOR3
 2346              		.cfi_endproc
 2347              	.LFE40:
 2349              		.section	.text.rt_show_version,"ax",%progbits
 2350              		.align	1
 2351              		.global	rt_show_version
 2352              		.syntax unified
 2353              		.thumb
 2354              		.thumb_func
 2355              		.fpu fpv4-sp-d16
 2357              	rt_show_version:
 2358              	.LFB30:
 536:Middlewares/Third_Party/RealThread_RTOS_RT-Thread/src/kservice.c ****     rt_kprintf("\n \\ | /\n");
 2359              		.loc 1 536 0
 2360              		.cfi_startproc
 2361              		@ args = 0, pretend = 0, frame = 0
 2362              		@ frame_needed = 0, uses_anonymous_args = 0
 2363 0000 00B5     		push	{lr}
 2364              	.LCFI50:
 2365              		.cfi_def_cfa_offset 4
 2366              		.cfi_offset 14, -4
 2367 0002 83B0     		sub	sp, sp, #12
 2368              	.LCFI51:
 2369              		.cfi_def_cfa_offset 16
 537:Middlewares/Third_Party/RealThread_RTOS_RT-Thread/src/kservice.c ****     rt_kprintf("- RT -     Thread Operating System\n");
 2370              		.loc 1 537 0
 2371 0004 0948     		ldr	r0, .L276
 2372 0006 FFF7FEFF 		bl	rt_kprintf
 2373              	.LVL307:
 538:Middlewares/Third_Party/RealThread_RTOS_RT-Thread/src/kservice.c ****     rt_kprintf(" / | \\     %d.%d.%d build %s\n",
 2374              		.loc 1 538 0
 2375 000a 0948     		ldr	r0, .L276+4
 2376 000c FFF7FEFF 		bl	rt_kprintf
 2377              	.LVL308:
 539:Middlewares/Third_Party/RealThread_RTOS_RT-Thread/src/kservice.c ****                RT_VERSION, RT_SUBVERSION, RT_REVISION, __DATE__);
 2378              		.loc 1 539 0
 2379 0010 084B     		ldr	r3, .L276+8
 2380 0012 0093     		str	r3, [sp]
 2381 0014 0323     		movs	r3, #3
 2382 0016 0122     		movs	r2, #1
 2383 0018 1946     		mov	r1, r3
 2384 001a 0748     		ldr	r0, .L276+12
 2385 001c FFF7FEFF 		bl	rt_kprintf
 2386              	.LVL309:
 541:Middlewares/Third_Party/RealThread_RTOS_RT-Thread/src/kservice.c **** }
 2387              		.loc 1 541 0
 2388 0020 0648     		ldr	r0, .L276+16
 2389 0022 FFF7FEFF 		bl	rt_kprintf
 2390              	.LVL310:
 542:Middlewares/Third_Party/RealThread_RTOS_RT-Thread/src/kservice.c **** RTM_EXPORT(rt_show_version);
 2391              		.loc 1 542 0
 2392 0026 03B0     		add	sp, sp, #12
 2393              	.LCFI52:
 2394              		.cfi_def_cfa_offset 4
ARM GAS  C:\Users\chuti\AppData\Local\Temp\cctMPljw.s 			page 68


 2395              		@ sp needed
 2396 0028 5DF804FB 		ldr	pc, [sp], #4
 2397              	.L277:
 2398              		.align	2
 2399              	.L276:
 2400 002c 00000000 		.word	.LC1
 2401 0030 0C000000 		.word	.LC2
 2402 0034 50000000 		.word	.LC4
 2403 0038 30000000 		.word	.LC3
 2404 003c 5C000000 		.word	.LC5
 2405              		.cfi_endproc
 2406              	.LFE30:
 2408              		.section	.text.rt_malloc_align,"ax",%progbits
 2409              		.align	1
 2410              		.global	rt_malloc_align
 2411              		.syntax unified
 2412              		.thumb
 2413              		.thumb_func
 2414              		.fpu fpv4-sp-d16
 2416              	rt_malloc_align:
 2417              	.LFB41:
1216:Middlewares/Third_Party/RealThread_RTOS_RT-Thread/src/kservice.c **** RTM_EXPORT(rt_kprintf);
1217:Middlewares/Third_Party/RealThread_RTOS_RT-Thread/src/kservice.c **** #endif
1218:Middlewares/Third_Party/RealThread_RTOS_RT-Thread/src/kservice.c **** 
1219:Middlewares/Third_Party/RealThread_RTOS_RT-Thread/src/kservice.c **** #ifdef RT_USING_HEAP
1220:Middlewares/Third_Party/RealThread_RTOS_RT-Thread/src/kservice.c **** /**
1221:Middlewares/Third_Party/RealThread_RTOS_RT-Thread/src/kservice.c ****  * This function allocates a memory block, which address is aligned to the
1222:Middlewares/Third_Party/RealThread_RTOS_RT-Thread/src/kservice.c ****  * specified alignment size.
1223:Middlewares/Third_Party/RealThread_RTOS_RT-Thread/src/kservice.c ****  *
1224:Middlewares/Third_Party/RealThread_RTOS_RT-Thread/src/kservice.c ****  * @param size the allocated memory block size
1225:Middlewares/Third_Party/RealThread_RTOS_RT-Thread/src/kservice.c ****  * @param align the alignment size
1226:Middlewares/Third_Party/RealThread_RTOS_RT-Thread/src/kservice.c ****  *
1227:Middlewares/Third_Party/RealThread_RTOS_RT-Thread/src/kservice.c ****  * @return the allocated memory block on successful, otherwise returns RT_NULL
1228:Middlewares/Third_Party/RealThread_RTOS_RT-Thread/src/kservice.c ****  */
1229:Middlewares/Third_Party/RealThread_RTOS_RT-Thread/src/kservice.c **** void *rt_malloc_align(rt_size_t size, rt_size_t align)
1230:Middlewares/Third_Party/RealThread_RTOS_RT-Thread/src/kservice.c **** {
 2418              		.loc 1 1230 0
 2419              		.cfi_startproc
 2420              		@ args = 0, pretend = 0, frame = 0
 2421              		@ frame_needed = 0, uses_anonymous_args = 0
 2422              	.LVL311:
 2423 0000 10B5     		push	{r4, lr}
 2424              	.LCFI53:
 2425              		.cfi_def_cfa_offset 8
 2426              		.cfi_offset 4, -8
 2427              		.cfi_offset 14, -4
1231:Middlewares/Third_Party/RealThread_RTOS_RT-Thread/src/kservice.c ****     void *align_ptr;
1232:Middlewares/Third_Party/RealThread_RTOS_RT-Thread/src/kservice.c ****     void *ptr;
1233:Middlewares/Third_Party/RealThread_RTOS_RT-Thread/src/kservice.c ****     rt_size_t align_size;
1234:Middlewares/Third_Party/RealThread_RTOS_RT-Thread/src/kservice.c **** 
1235:Middlewares/Third_Party/RealThread_RTOS_RT-Thread/src/kservice.c ****     /* align the alignment size to 4 byte */
1236:Middlewares/Third_Party/RealThread_RTOS_RT-Thread/src/kservice.c ****     align = ((align + 0x03) & ~0x03);
 2428              		.loc 1 1236 0
 2429 0002 0331     		adds	r1, r1, #3
 2430              	.LVL312:
 2431 0004 21F00304 		bic	r4, r1, #3
 2432              	.LVL313:
ARM GAS  C:\Users\chuti\AppData\Local\Temp\cctMPljw.s 			page 69


1237:Middlewares/Third_Party/RealThread_RTOS_RT-Thread/src/kservice.c **** 
1238:Middlewares/Third_Party/RealThread_RTOS_RT-Thread/src/kservice.c ****     /* get total aligned size */
1239:Middlewares/Third_Party/RealThread_RTOS_RT-Thread/src/kservice.c ****     align_size = ((size + 0x03) & ~0x03) + align;
 2433              		.loc 1 1239 0
 2434 0008 0330     		adds	r0, r0, #3
 2435              	.LVL314:
 2436 000a 20F00300 		bic	r0, r0, #3
 2437              	.LVL315:
1240:Middlewares/Third_Party/RealThread_RTOS_RT-Thread/src/kservice.c ****     /* allocate memory block from heap */
1241:Middlewares/Third_Party/RealThread_RTOS_RT-Thread/src/kservice.c ****     ptr = rt_malloc(align_size);
 2438              		.loc 1 1241 0
 2439 000e 2044     		add	r0, r0, r4
 2440              	.LVL316:
 2441 0010 FFF7FEFF 		bl	rt_malloc
 2442              	.LVL317:
1242:Middlewares/Third_Party/RealThread_RTOS_RT-Thread/src/kservice.c ****     if (ptr != RT_NULL)
 2443              		.loc 1 1242 0
 2444 0014 0346     		mov	r3, r0
 2445 0016 30B1     		cbz	r0, .L278
1243:Middlewares/Third_Party/RealThread_RTOS_RT-Thread/src/kservice.c ****     {
1244:Middlewares/Third_Party/RealThread_RTOS_RT-Thread/src/kservice.c ****         /* the allocated memory block is aligned */
1245:Middlewares/Third_Party/RealThread_RTOS_RT-Thread/src/kservice.c ****         if (((rt_uint32_t)ptr & (align - 1)) == 0)
 2446              		.loc 1 1245 0
 2447 0018 621E     		subs	r2, r4, #1
 2448 001a 0146     		mov	r1, r0
 2449 001c 1042     		tst	r0, r2
 2450 001e 04D1     		bne	.L280
1246:Middlewares/Third_Party/RealThread_RTOS_RT-Thread/src/kservice.c ****         {
1247:Middlewares/Third_Party/RealThread_RTOS_RT-Thread/src/kservice.c ****             align_ptr = (void *)((rt_uint32_t)ptr + align);
 2451              		.loc 1 1247 0
 2452 0020 2344     		add	r3, r3, r4
 2453              	.LVL318:
 2454              	.L281:
1248:Middlewares/Third_Party/RealThread_RTOS_RT-Thread/src/kservice.c ****         }
1249:Middlewares/Third_Party/RealThread_RTOS_RT-Thread/src/kservice.c ****         else
1250:Middlewares/Third_Party/RealThread_RTOS_RT-Thread/src/kservice.c ****         {
1251:Middlewares/Third_Party/RealThread_RTOS_RT-Thread/src/kservice.c ****             align_ptr = (void *)(((rt_uint32_t)ptr + (align - 1)) & ~(align - 1));
1252:Middlewares/Third_Party/RealThread_RTOS_RT-Thread/src/kservice.c ****         }
1253:Middlewares/Third_Party/RealThread_RTOS_RT-Thread/src/kservice.c **** 
1254:Middlewares/Third_Party/RealThread_RTOS_RT-Thread/src/kservice.c ****         /* set the pointer before alignment pointer to the real pointer */
1255:Middlewares/Third_Party/RealThread_RTOS_RT-Thread/src/kservice.c ****         *((rt_uint32_t *)((rt_uint32_t)align_ptr - sizeof(void *))) = (rt_uint32_t)ptr;
 2455              		.loc 1 1255 0
 2456 0022 43F8041C 		str	r1, [r3, #-4]
 2457              	.LVL319:
 2458              	.L278:
1256:Middlewares/Third_Party/RealThread_RTOS_RT-Thread/src/kservice.c **** 
1257:Middlewares/Third_Party/RealThread_RTOS_RT-Thread/src/kservice.c ****         ptr = align_ptr;
1258:Middlewares/Third_Party/RealThread_RTOS_RT-Thread/src/kservice.c ****     }
1259:Middlewares/Third_Party/RealThread_RTOS_RT-Thread/src/kservice.c **** 
1260:Middlewares/Third_Party/RealThread_RTOS_RT-Thread/src/kservice.c ****     return ptr;
1261:Middlewares/Third_Party/RealThread_RTOS_RT-Thread/src/kservice.c **** }
 2459              		.loc 1 1261 0
 2460 0026 1846     		mov	r0, r3
 2461 0028 10BD     		pop	{r4, pc}
 2462              	.LVL320:
 2463              	.L280:
1251:Middlewares/Third_Party/RealThread_RTOS_RT-Thread/src/kservice.c ****         }
ARM GAS  C:\Users\chuti\AppData\Local\Temp\cctMPljw.s 			page 70


 2464              		.loc 1 1251 0
 2465 002a 2344     		add	r3, r3, r4
 2466 002c 013B     		subs	r3, r3, #1
 2467 002e 6442     		negs	r4, r4
 2468              	.LVL321:
 2469 0030 2340     		ands	r3, r3, r4
 2470              	.LVL322:
 2471 0032 F6E7     		b	.L281
 2472              		.cfi_endproc
 2473              	.LFE41:
 2475              		.section	.text.rt_free_align,"ax",%progbits
 2476              		.align	1
 2477              		.global	rt_free_align
 2478              		.syntax unified
 2479              		.thumb
 2480              		.thumb_func
 2481              		.fpu fpv4-sp-d16
 2483              	rt_free_align:
 2484              	.LFB42:
1262:Middlewares/Third_Party/RealThread_RTOS_RT-Thread/src/kservice.c **** RTM_EXPORT(rt_malloc_align);
1263:Middlewares/Third_Party/RealThread_RTOS_RT-Thread/src/kservice.c **** 
1264:Middlewares/Third_Party/RealThread_RTOS_RT-Thread/src/kservice.c **** /**
1265:Middlewares/Third_Party/RealThread_RTOS_RT-Thread/src/kservice.c ****  * This function release the memory block, which is allocated by
1266:Middlewares/Third_Party/RealThread_RTOS_RT-Thread/src/kservice.c ****  * rt_malloc_align function and address is aligned.
1267:Middlewares/Third_Party/RealThread_RTOS_RT-Thread/src/kservice.c ****  *
1268:Middlewares/Third_Party/RealThread_RTOS_RT-Thread/src/kservice.c ****  * @param ptr the memory block pointer
1269:Middlewares/Third_Party/RealThread_RTOS_RT-Thread/src/kservice.c ****  */
1270:Middlewares/Third_Party/RealThread_RTOS_RT-Thread/src/kservice.c **** void rt_free_align(void *ptr)
1271:Middlewares/Third_Party/RealThread_RTOS_RT-Thread/src/kservice.c **** {
 2485              		.loc 1 1271 0
 2486              		.cfi_startproc
 2487              		@ args = 0, pretend = 0, frame = 0
 2488              		@ frame_needed = 0, uses_anonymous_args = 0
 2489              	.LVL323:
 2490 0000 08B5     		push	{r3, lr}
 2491              	.LCFI54:
 2492              		.cfi_def_cfa_offset 8
 2493              		.cfi_offset 3, -8
 2494              		.cfi_offset 14, -4
 2495              	.LVL324:
1272:Middlewares/Third_Party/RealThread_RTOS_RT-Thread/src/kservice.c ****     void *real_ptr;
1273:Middlewares/Third_Party/RealThread_RTOS_RT-Thread/src/kservice.c **** 
1274:Middlewares/Third_Party/RealThread_RTOS_RT-Thread/src/kservice.c ****     real_ptr = (void *) * (rt_uint32_t *)((rt_uint32_t)ptr - sizeof(void *));
1275:Middlewares/Third_Party/RealThread_RTOS_RT-Thread/src/kservice.c ****     rt_free(real_ptr);
 2496              		.loc 1 1275 0
 2497 0002 50F8040C 		ldr	r0, [r0, #-4]
 2498              	.LVL325:
 2499 0006 FFF7FEFF 		bl	rt_free
 2500              	.LVL326:
1276:Middlewares/Third_Party/RealThread_RTOS_RT-Thread/src/kservice.c **** }
 2501              		.loc 1 1276 0
 2502 000a 08BD     		pop	{r3, pc}
 2503              		.cfi_endproc
 2504              	.LFE42:
 2506              		.section	.text.__rt_ffs,"ax",%progbits
 2507              		.align	1
 2508              		.global	__rt_ffs
ARM GAS  C:\Users\chuti\AppData\Local\Temp\cctMPljw.s 			page 71


 2509              		.syntax unified
 2510              		.thumb
 2511              		.thumb_func
 2512              		.fpu fpv4-sp-d16
 2514              	__rt_ffs:
 2515              	.LFB43:
1277:Middlewares/Third_Party/RealThread_RTOS_RT-Thread/src/kservice.c **** RTM_EXPORT(rt_free_align);
1278:Middlewares/Third_Party/RealThread_RTOS_RT-Thread/src/kservice.c **** #endif
1279:Middlewares/Third_Party/RealThread_RTOS_RT-Thread/src/kservice.c **** 
1280:Middlewares/Third_Party/RealThread_RTOS_RT-Thread/src/kservice.c **** #ifndef RT_USING_CPU_FFS
1281:Middlewares/Third_Party/RealThread_RTOS_RT-Thread/src/kservice.c **** const rt_uint8_t __lowest_bit_bitmap[] =
1282:Middlewares/Third_Party/RealThread_RTOS_RT-Thread/src/kservice.c **** {
1283:Middlewares/Third_Party/RealThread_RTOS_RT-Thread/src/kservice.c ****     /* 00 */ 0, 0, 1, 0, 2, 0, 1, 0, 3, 0, 1, 0, 2, 0, 1, 0,
1284:Middlewares/Third_Party/RealThread_RTOS_RT-Thread/src/kservice.c ****     /* 10 */ 4, 0, 1, 0, 2, 0, 1, 0, 3, 0, 1, 0, 2, 0, 1, 0,
1285:Middlewares/Third_Party/RealThread_RTOS_RT-Thread/src/kservice.c ****     /* 20 */ 5, 0, 1, 0, 2, 0, 1, 0, 3, 0, 1, 0, 2, 0, 1, 0,
1286:Middlewares/Third_Party/RealThread_RTOS_RT-Thread/src/kservice.c ****     /* 30 */ 4, 0, 1, 0, 2, 0, 1, 0, 3, 0, 1, 0, 2, 0, 1, 0,
1287:Middlewares/Third_Party/RealThread_RTOS_RT-Thread/src/kservice.c ****     /* 40 */ 6, 0, 1, 0, 2, 0, 1, 0, 3, 0, 1, 0, 2, 0, 1, 0,
1288:Middlewares/Third_Party/RealThread_RTOS_RT-Thread/src/kservice.c ****     /* 50 */ 4, 0, 1, 0, 2, 0, 1, 0, 3, 0, 1, 0, 2, 0, 1, 0,
1289:Middlewares/Third_Party/RealThread_RTOS_RT-Thread/src/kservice.c ****     /* 60 */ 5, 0, 1, 0, 2, 0, 1, 0, 3, 0, 1, 0, 2, 0, 1, 0,
1290:Middlewares/Third_Party/RealThread_RTOS_RT-Thread/src/kservice.c ****     /* 70 */ 4, 0, 1, 0, 2, 0, 1, 0, 3, 0, 1, 0, 2, 0, 1, 0,
1291:Middlewares/Third_Party/RealThread_RTOS_RT-Thread/src/kservice.c ****     /* 80 */ 7, 0, 1, 0, 2, 0, 1, 0, 3, 0, 1, 0, 2, 0, 1, 0,
1292:Middlewares/Third_Party/RealThread_RTOS_RT-Thread/src/kservice.c ****     /* 90 */ 4, 0, 1, 0, 2, 0, 1, 0, 3, 0, 1, 0, 2, 0, 1, 0,
1293:Middlewares/Third_Party/RealThread_RTOS_RT-Thread/src/kservice.c ****     /* A0 */ 5, 0, 1, 0, 2, 0, 1, 0, 3, 0, 1, 0, 2, 0, 1, 0,
1294:Middlewares/Third_Party/RealThread_RTOS_RT-Thread/src/kservice.c ****     /* B0 */ 4, 0, 1, 0, 2, 0, 1, 0, 3, 0, 1, 0, 2, 0, 1, 0,
1295:Middlewares/Third_Party/RealThread_RTOS_RT-Thread/src/kservice.c ****     /* C0 */ 6, 0, 1, 0, 2, 0, 1, 0, 3, 0, 1, 0, 2, 0, 1, 0,
1296:Middlewares/Third_Party/RealThread_RTOS_RT-Thread/src/kservice.c ****     /* D0 */ 4, 0, 1, 0, 2, 0, 1, 0, 3, 0, 1, 0, 2, 0, 1, 0,
1297:Middlewares/Third_Party/RealThread_RTOS_RT-Thread/src/kservice.c ****     /* E0 */ 5, 0, 1, 0, 2, 0, 1, 0, 3, 0, 1, 0, 2, 0, 1, 0,
1298:Middlewares/Third_Party/RealThread_RTOS_RT-Thread/src/kservice.c ****     /* F0 */ 4, 0, 1, 0, 2, 0, 1, 0, 3, 0, 1, 0, 2, 0, 1, 0
1299:Middlewares/Third_Party/RealThread_RTOS_RT-Thread/src/kservice.c **** };
1300:Middlewares/Third_Party/RealThread_RTOS_RT-Thread/src/kservice.c **** 
1301:Middlewares/Third_Party/RealThread_RTOS_RT-Thread/src/kservice.c **** /**
1302:Middlewares/Third_Party/RealThread_RTOS_RT-Thread/src/kservice.c ****  * This function finds the first bit set (beginning with the least significant bit)
1303:Middlewares/Third_Party/RealThread_RTOS_RT-Thread/src/kservice.c ****  * in value and return the index of that bit.
1304:Middlewares/Third_Party/RealThread_RTOS_RT-Thread/src/kservice.c ****  *
1305:Middlewares/Third_Party/RealThread_RTOS_RT-Thread/src/kservice.c ****  * Bits are numbered starting at 1 (the least significant bit).  A return value of
1306:Middlewares/Third_Party/RealThread_RTOS_RT-Thread/src/kservice.c ****  * zero from any of these functions means that the argument was zero.
1307:Middlewares/Third_Party/RealThread_RTOS_RT-Thread/src/kservice.c ****  *
1308:Middlewares/Third_Party/RealThread_RTOS_RT-Thread/src/kservice.c ****  * @return return the index of the first bit set. If value is 0, then this function
1309:Middlewares/Third_Party/RealThread_RTOS_RT-Thread/src/kservice.c ****  * shall return 0.
1310:Middlewares/Third_Party/RealThread_RTOS_RT-Thread/src/kservice.c ****  */
1311:Middlewares/Third_Party/RealThread_RTOS_RT-Thread/src/kservice.c **** int __rt_ffs(int value)
1312:Middlewares/Third_Party/RealThread_RTOS_RT-Thread/src/kservice.c **** {
 2516              		.loc 1 1312 0
 2517              		.cfi_startproc
 2518              		@ args = 0, pretend = 0, frame = 0
 2519              		@ frame_needed = 0, uses_anonymous_args = 0
 2520              		@ link register save eliminated.
 2521              	.LVL327:
1313:Middlewares/Third_Party/RealThread_RTOS_RT-Thread/src/kservice.c ****     if (value == 0) return 0;
 2522              		.loc 1 1313 0
 2523 0000 E8B1     		cbz	r0, .L290
1314:Middlewares/Third_Party/RealThread_RTOS_RT-Thread/src/kservice.c **** 
1315:Middlewares/Third_Party/RealThread_RTOS_RT-Thread/src/kservice.c ****     if (value & 0xff)
 2524              		.loc 1 1315 0
 2525 0002 10F0FF02 		ands	r2, r0, #255
 2526 0006 0AD1     		bne	.L291
1316:Middlewares/Third_Party/RealThread_RTOS_RT-Thread/src/kservice.c ****         return __lowest_bit_bitmap[value & 0xff] + 1;
ARM GAS  C:\Users\chuti\AppData\Local\Temp\cctMPljw.s 			page 72


1317:Middlewares/Third_Party/RealThread_RTOS_RT-Thread/src/kservice.c **** 
1318:Middlewares/Third_Party/RealThread_RTOS_RT-Thread/src/kservice.c ****     if (value & 0xff00)
 2527              		.loc 1 1318 0
 2528 0008 10F47F4F 		tst	r0, #65280
 2529 000c 0BD1     		bne	.L292
1319:Middlewares/Third_Party/RealThread_RTOS_RT-Thread/src/kservice.c ****         return __lowest_bit_bitmap[(value & 0xff00) >> 8] + 9;
1320:Middlewares/Third_Party/RealThread_RTOS_RT-Thread/src/kservice.c **** 
1321:Middlewares/Third_Party/RealThread_RTOS_RT-Thread/src/kservice.c ****     if (value & 0xff0000)
 2530              		.loc 1 1321 0
 2531 000e 10F47F0F 		tst	r0, #16711680
 2532 0012 0ED1     		bne	.L293
1322:Middlewares/Third_Party/RealThread_RTOS_RT-Thread/src/kservice.c ****         return __lowest_bit_bitmap[(value & 0xff0000) >> 16] + 17;
1323:Middlewares/Third_Party/RealThread_RTOS_RT-Thread/src/kservice.c **** 
1324:Middlewares/Third_Party/RealThread_RTOS_RT-Thread/src/kservice.c ****     return __lowest_bit_bitmap[(value & 0xff000000) >> 24] + 25;
 2533              		.loc 1 1324 0
 2534 0014 030E     		lsrs	r3, r0, #24
 2535 0016 0A4A     		ldr	r2, .L294
 2536 0018 D05C     		ldrb	r0, [r2, r3]	@ zero_extendqisi2
 2537              	.LVL328:
 2538 001a 1930     		adds	r0, r0, #25
 2539 001c 7047     		bx	lr
 2540              	.LVL329:
 2541              	.L291:
1316:Middlewares/Third_Party/RealThread_RTOS_RT-Thread/src/kservice.c **** 
 2542              		.loc 1 1316 0
 2543 001e 084B     		ldr	r3, .L294
 2544 0020 985C     		ldrb	r0, [r3, r2]	@ zero_extendqisi2
 2545              	.LVL330:
 2546 0022 0130     		adds	r0, r0, #1
 2547 0024 7047     		bx	lr
 2548              	.LVL331:
 2549              	.L292:
1319:Middlewares/Third_Party/RealThread_RTOS_RT-Thread/src/kservice.c ****         return __lowest_bit_bitmap[(value & 0xff00) >> 8] + 9;
 2550              		.loc 1 1319 0
 2551 0026 C0F30723 		ubfx	r3, r0, #8, #8
 2552 002a 054A     		ldr	r2, .L294
 2553 002c D05C     		ldrb	r0, [r2, r3]	@ zero_extendqisi2
 2554              	.LVL332:
 2555 002e 0930     		adds	r0, r0, #9
 2556 0030 7047     		bx	lr
 2557              	.LVL333:
 2558              	.L293:
1322:Middlewares/Third_Party/RealThread_RTOS_RT-Thread/src/kservice.c ****         return __lowest_bit_bitmap[(value & 0xff0000) >> 16] + 17;
 2559              		.loc 1 1322 0
 2560 0032 C0F30743 		ubfx	r3, r0, #16, #8
 2561 0036 024A     		ldr	r2, .L294
 2562 0038 D05C     		ldrb	r0, [r2, r3]	@ zero_extendqisi2
 2563              	.LVL334:
 2564 003a 1130     		adds	r0, r0, #17
 2565 003c 7047     		bx	lr
 2566              	.LVL335:
 2567              	.L290:
1325:Middlewares/Third_Party/RealThread_RTOS_RT-Thread/src/kservice.c **** }
 2568              		.loc 1 1325 0
 2569 003e 7047     		bx	lr
 2570              	.L295:
 2571              		.align	2
ARM GAS  C:\Users\chuti\AppData\Local\Temp\cctMPljw.s 			page 73


 2572              	.L294:
 2573 0040 00000000 		.word	.LANCHOR4
 2574              		.cfi_endproc
 2575              	.LFE43:
 2577              		.global	__lowest_bit_bitmap
 2578              		.section	.bss.__rt_errno,"aw",%nobits
 2579              		.align	2
 2580              		.set	.LANCHOR2,. + 0
 2583              	__rt_errno:
 2584 0000 00000000 		.space	4
 2585              		.section	.bss.rt_log_buf.6148,"aw",%nobits
 2586              		.align	2
 2587              		.set	.LANCHOR3,. + 0
 2590              	rt_log_buf.6148:
 2591 0000 00000000 		.space	128
 2591      00000000 
 2591      00000000 
 2591      00000000 
 2591      00000000 
 2592              		.section	.rodata.__lowest_bit_bitmap,"a",%progbits
 2593              		.align	2
 2594              		.set	.LANCHOR4,. + 0
 2597              	__lowest_bit_bitmap:
 2598 0000 00       		.byte	0
 2599 0001 00       		.byte	0
 2600 0002 01       		.byte	1
 2601 0003 00       		.byte	0
 2602 0004 02       		.byte	2
 2603 0005 00       		.byte	0
 2604 0006 01       		.byte	1
 2605 0007 00       		.byte	0
 2606 0008 03       		.byte	3
 2607 0009 00       		.byte	0
 2608 000a 01       		.byte	1
 2609 000b 00       		.byte	0
 2610 000c 02       		.byte	2
 2611 000d 00       		.byte	0
 2612 000e 01       		.byte	1
 2613 000f 00       		.byte	0
 2614 0010 04       		.byte	4
 2615 0011 00       		.byte	0
 2616 0012 01       		.byte	1
 2617 0013 00       		.byte	0
 2618 0014 02       		.byte	2
 2619 0015 00       		.byte	0
 2620 0016 01       		.byte	1
 2621 0017 00       		.byte	0
 2622 0018 03       		.byte	3
 2623 0019 00       		.byte	0
 2624 001a 01       		.byte	1
 2625 001b 00       		.byte	0
 2626 001c 02       		.byte	2
 2627 001d 00       		.byte	0
 2628 001e 01       		.byte	1
 2629 001f 00       		.byte	0
