ARM GAS  C:\Users\chuti\AppData\Local\Temp\cco5XJIB.s 			page 1


   1              		.cpu cortex-m4
   2              		.eabi_attribute 27, 1
   3              		.eabi_attribute 28, 1
   4              		.eabi_attribute 20, 1
   5              		.eabi_attribute 21, 1
   6              		.eabi_attribute 23, 3
   7              		.eabi_attribute 24, 1
   8              		.eabi_attribute 25, 1
   9              		.eabi_attribute 26, 1
  10              		.eabi_attribute 30, 1
  11              		.eabi_attribute 34, 1
  12              		.eabi_attribute 18, 4
  13              		.file	"timer.c"
  14              		.text
  15              	.Ltext0:
  16              		.cfi_sections	.debug_frame
  17              		.section	.text._rt_timer_init,"ax",%progbits
  18              		.align	1
  19              		.syntax unified
  20              		.thumb
  21              		.thumb_func
  22              		.fpu fpv4-sp-d16
  24              	_rt_timer_init:
  25              	.LFB15:
  26              		.file 1 "Middlewares/Third_Party/RealThread_RTOS_RT-Thread/src/timer.c"
   1:Middlewares/Third_Party/RealThread_RTOS_RT-Thread/src/timer.c **** /*
   2:Middlewares/Third_Party/RealThread_RTOS_RT-Thread/src/timer.c ****  * Copyright (c) 2006-2018, RT-Thread Development Team
   3:Middlewares/Third_Party/RealThread_RTOS_RT-Thread/src/timer.c ****  *
   4:Middlewares/Third_Party/RealThread_RTOS_RT-Thread/src/timer.c ****  * SPDX-License-Identifier: Apache-2.0
   5:Middlewares/Third_Party/RealThread_RTOS_RT-Thread/src/timer.c ****  *
   6:Middlewares/Third_Party/RealThread_RTOS_RT-Thread/src/timer.c ****  * Change Logs:
   7:Middlewares/Third_Party/RealThread_RTOS_RT-Thread/src/timer.c ****  * Date           Author       Notes
   8:Middlewares/Third_Party/RealThread_RTOS_RT-Thread/src/timer.c ****  * 2006-03-12     Bernard      first version
   9:Middlewares/Third_Party/RealThread_RTOS_RT-Thread/src/timer.c ****  * 2006-04-29     Bernard      implement thread timer
  10:Middlewares/Third_Party/RealThread_RTOS_RT-Thread/src/timer.c ****  * 2006-06-04     Bernard      implement rt_timer_control
  11:Middlewares/Third_Party/RealThread_RTOS_RT-Thread/src/timer.c ****  * 2006-08-10     Bernard      fix the periodic timer bug
  12:Middlewares/Third_Party/RealThread_RTOS_RT-Thread/src/timer.c ****  * 2006-09-03     Bernard      implement rt_timer_detach
  13:Middlewares/Third_Party/RealThread_RTOS_RT-Thread/src/timer.c ****  * 2009-11-11     LiJin        add soft timer
  14:Middlewares/Third_Party/RealThread_RTOS_RT-Thread/src/timer.c ****  * 2010-05-12     Bernard      fix the timer check bug.
  15:Middlewares/Third_Party/RealThread_RTOS_RT-Thread/src/timer.c ****  * 2010-11-02     Charlie      re-implement tick overflow issue
  16:Middlewares/Third_Party/RealThread_RTOS_RT-Thread/src/timer.c ****  * 2012-12-15     Bernard      fix the next timeout issue in soft timer
  17:Middlewares/Third_Party/RealThread_RTOS_RT-Thread/src/timer.c ****  * 2014-07-12     Bernard      does not lock scheduler when invoking soft-timer
  18:Middlewares/Third_Party/RealThread_RTOS_RT-Thread/src/timer.c ****  *                             timeout function.
  19:Middlewares/Third_Party/RealThread_RTOS_RT-Thread/src/timer.c ****  */
  20:Middlewares/Third_Party/RealThread_RTOS_RT-Thread/src/timer.c **** 
  21:Middlewares/Third_Party/RealThread_RTOS_RT-Thread/src/timer.c **** #include <rtthread.h>
  22:Middlewares/Third_Party/RealThread_RTOS_RT-Thread/src/timer.c **** #include <rthw.h>
  23:Middlewares/Third_Party/RealThread_RTOS_RT-Thread/src/timer.c **** 
  24:Middlewares/Third_Party/RealThread_RTOS_RT-Thread/src/timer.c **** /* hard timer list */
  25:Middlewares/Third_Party/RealThread_RTOS_RT-Thread/src/timer.c **** static rt_list_t rt_timer_list[RT_TIMER_SKIP_LIST_LEVEL];
  26:Middlewares/Third_Party/RealThread_RTOS_RT-Thread/src/timer.c **** 
  27:Middlewares/Third_Party/RealThread_RTOS_RT-Thread/src/timer.c **** #ifdef RT_USING_TIMER_SOFT
  28:Middlewares/Third_Party/RealThread_RTOS_RT-Thread/src/timer.c **** #ifndef RT_TIMER_THREAD_STACK_SIZE
  29:Middlewares/Third_Party/RealThread_RTOS_RT-Thread/src/timer.c **** #define RT_TIMER_THREAD_STACK_SIZE     512
  30:Middlewares/Third_Party/RealThread_RTOS_RT-Thread/src/timer.c **** #endif
  31:Middlewares/Third_Party/RealThread_RTOS_RT-Thread/src/timer.c **** 
  32:Middlewares/Third_Party/RealThread_RTOS_RT-Thread/src/timer.c **** #ifndef RT_TIMER_THREAD_PRIO
ARM GAS  C:\Users\chuti\AppData\Local\Temp\cco5XJIB.s 			page 2


  33:Middlewares/Third_Party/RealThread_RTOS_RT-Thread/src/timer.c **** #define RT_TIMER_THREAD_PRIO           0
  34:Middlewares/Third_Party/RealThread_RTOS_RT-Thread/src/timer.c **** #endif
  35:Middlewares/Third_Party/RealThread_RTOS_RT-Thread/src/timer.c **** 
  36:Middlewares/Third_Party/RealThread_RTOS_RT-Thread/src/timer.c **** /* soft timer list */
  37:Middlewares/Third_Party/RealThread_RTOS_RT-Thread/src/timer.c **** static rt_list_t rt_soft_timer_list[RT_TIMER_SKIP_LIST_LEVEL];
  38:Middlewares/Third_Party/RealThread_RTOS_RT-Thread/src/timer.c **** static struct rt_thread timer_thread;
  39:Middlewares/Third_Party/RealThread_RTOS_RT-Thread/src/timer.c **** ALIGN(RT_ALIGN_SIZE)
  40:Middlewares/Third_Party/RealThread_RTOS_RT-Thread/src/timer.c **** static rt_uint8_t timer_thread_stack[RT_TIMER_THREAD_STACK_SIZE];
  41:Middlewares/Third_Party/RealThread_RTOS_RT-Thread/src/timer.c **** #endif
  42:Middlewares/Third_Party/RealThread_RTOS_RT-Thread/src/timer.c **** 
  43:Middlewares/Third_Party/RealThread_RTOS_RT-Thread/src/timer.c **** #ifdef RT_USING_HOOK
  44:Middlewares/Third_Party/RealThread_RTOS_RT-Thread/src/timer.c **** extern void (*rt_object_take_hook)(struct rt_object *object);
  45:Middlewares/Third_Party/RealThread_RTOS_RT-Thread/src/timer.c **** extern void (*rt_object_put_hook)(struct rt_object *object);
  46:Middlewares/Third_Party/RealThread_RTOS_RT-Thread/src/timer.c **** static void (*rt_timer_enter_hook)(struct rt_timer *timer);
  47:Middlewares/Third_Party/RealThread_RTOS_RT-Thread/src/timer.c **** static void (*rt_timer_exit_hook)(struct rt_timer *timer);
  48:Middlewares/Third_Party/RealThread_RTOS_RT-Thread/src/timer.c **** 
  49:Middlewares/Third_Party/RealThread_RTOS_RT-Thread/src/timer.c **** /**
  50:Middlewares/Third_Party/RealThread_RTOS_RT-Thread/src/timer.c ****  * @addtogroup Hook
  51:Middlewares/Third_Party/RealThread_RTOS_RT-Thread/src/timer.c ****  */
  52:Middlewares/Third_Party/RealThread_RTOS_RT-Thread/src/timer.c **** 
  53:Middlewares/Third_Party/RealThread_RTOS_RT-Thread/src/timer.c **** /**@{*/
  54:Middlewares/Third_Party/RealThread_RTOS_RT-Thread/src/timer.c **** 
  55:Middlewares/Third_Party/RealThread_RTOS_RT-Thread/src/timer.c **** /**
  56:Middlewares/Third_Party/RealThread_RTOS_RT-Thread/src/timer.c ****  * This function will set a hook function, which will be invoked when enter
  57:Middlewares/Third_Party/RealThread_RTOS_RT-Thread/src/timer.c ****  * timer timeout callback function.
  58:Middlewares/Third_Party/RealThread_RTOS_RT-Thread/src/timer.c ****  *
  59:Middlewares/Third_Party/RealThread_RTOS_RT-Thread/src/timer.c ****  * @param hook the hook function
  60:Middlewares/Third_Party/RealThread_RTOS_RT-Thread/src/timer.c ****  */
  61:Middlewares/Third_Party/RealThread_RTOS_RT-Thread/src/timer.c **** void rt_timer_enter_sethook(void (*hook)(struct rt_timer *timer))
  62:Middlewares/Third_Party/RealThread_RTOS_RT-Thread/src/timer.c **** {
  63:Middlewares/Third_Party/RealThread_RTOS_RT-Thread/src/timer.c ****     rt_timer_enter_hook = hook;
  64:Middlewares/Third_Party/RealThread_RTOS_RT-Thread/src/timer.c **** }
  65:Middlewares/Third_Party/RealThread_RTOS_RT-Thread/src/timer.c **** 
  66:Middlewares/Third_Party/RealThread_RTOS_RT-Thread/src/timer.c **** /**
  67:Middlewares/Third_Party/RealThread_RTOS_RT-Thread/src/timer.c ****  * This function will set a hook function, which will be invoked when exit
  68:Middlewares/Third_Party/RealThread_RTOS_RT-Thread/src/timer.c ****  * timer timeout callback function.
  69:Middlewares/Third_Party/RealThread_RTOS_RT-Thread/src/timer.c ****  *
  70:Middlewares/Third_Party/RealThread_RTOS_RT-Thread/src/timer.c ****  * @param hook the hook function
  71:Middlewares/Third_Party/RealThread_RTOS_RT-Thread/src/timer.c ****  */
  72:Middlewares/Third_Party/RealThread_RTOS_RT-Thread/src/timer.c **** void rt_timer_exit_sethook(void (*hook)(struct rt_timer *timer))
  73:Middlewares/Third_Party/RealThread_RTOS_RT-Thread/src/timer.c **** {
  74:Middlewares/Third_Party/RealThread_RTOS_RT-Thread/src/timer.c ****     rt_timer_exit_hook = hook;
  75:Middlewares/Third_Party/RealThread_RTOS_RT-Thread/src/timer.c **** }
  76:Middlewares/Third_Party/RealThread_RTOS_RT-Thread/src/timer.c **** 
  77:Middlewares/Third_Party/RealThread_RTOS_RT-Thread/src/timer.c **** /**@}*/
  78:Middlewares/Third_Party/RealThread_RTOS_RT-Thread/src/timer.c **** #endif
  79:Middlewares/Third_Party/RealThread_RTOS_RT-Thread/src/timer.c **** 
  80:Middlewares/Third_Party/RealThread_RTOS_RT-Thread/src/timer.c **** static void _rt_timer_init(rt_timer_t timer,
  81:Middlewares/Third_Party/RealThread_RTOS_RT-Thread/src/timer.c ****                            void (*timeout)(void *parameter),
  82:Middlewares/Third_Party/RealThread_RTOS_RT-Thread/src/timer.c ****                            void      *parameter,
  83:Middlewares/Third_Party/RealThread_RTOS_RT-Thread/src/timer.c ****                            rt_tick_t  time,
  84:Middlewares/Third_Party/RealThread_RTOS_RT-Thread/src/timer.c ****                            rt_uint8_t flag)
  85:Middlewares/Third_Party/RealThread_RTOS_RT-Thread/src/timer.c **** {
  27              		.loc 1 85 0
  28              		.cfi_startproc
  29              		@ args = 4, pretend = 0, frame = 0
  30              		@ frame_needed = 0, uses_anonymous_args = 0
ARM GAS  C:\Users\chuti\AppData\Local\Temp\cco5XJIB.s 			page 3


  31              		@ link register save eliminated.
  32              	.LVL0:
  33 0000 10B4     		push	{r4}
  34              	.LCFI0:
  35              		.cfi_def_cfa_offset 4
  36              		.cfi_offset 4, -4
  86:Middlewares/Third_Party/RealThread_RTOS_RT-Thread/src/timer.c ****     int i;
  87:Middlewares/Third_Party/RealThread_RTOS_RT-Thread/src/timer.c **** 
  88:Middlewares/Third_Party/RealThread_RTOS_RT-Thread/src/timer.c ****     /* set flag */
  89:Middlewares/Third_Party/RealThread_RTOS_RT-Thread/src/timer.c ****     timer->parent.flag  = flag;
  90:Middlewares/Third_Party/RealThread_RTOS_RT-Thread/src/timer.c **** 
  91:Middlewares/Third_Party/RealThread_RTOS_RT-Thread/src/timer.c ****     /* set deactivated */
  92:Middlewares/Third_Party/RealThread_RTOS_RT-Thread/src/timer.c ****     timer->parent.flag &= ~RT_TIMER_FLAG_ACTIVATED;
  37              		.loc 1 92 0
  38 0002 9DF80440 		ldrb	r4, [sp, #4]	@ zero_extendqisi2
  39 0006 24F00104 		bic	r4, r4, #1
  40 000a 4472     		strb	r4, [r0, #9]
  93:Middlewares/Third_Party/RealThread_RTOS_RT-Thread/src/timer.c **** 
  94:Middlewares/Third_Party/RealThread_RTOS_RT-Thread/src/timer.c ****     timer->timeout_func = timeout;
  41              		.loc 1 94 0
  42 000c C161     		str	r1, [r0, #28]
  95:Middlewares/Third_Party/RealThread_RTOS_RT-Thread/src/timer.c ****     timer->parameter    = parameter;
  43              		.loc 1 95 0
  44 000e 0262     		str	r2, [r0, #32]
  96:Middlewares/Third_Party/RealThread_RTOS_RT-Thread/src/timer.c **** 
  97:Middlewares/Third_Party/RealThread_RTOS_RT-Thread/src/timer.c ****     timer->timeout_tick = 0;
  45              		.loc 1 97 0
  46 0010 0022     		movs	r2, #0
  47              	.LVL1:
  48 0012 8262     		str	r2, [r0, #40]
  98:Middlewares/Third_Party/RealThread_RTOS_RT-Thread/src/timer.c ****     timer->init_tick    = time;
  49              		.loc 1 98 0
  50 0014 4362     		str	r3, [r0, #36]
  51              	.LVL2:
  99:Middlewares/Third_Party/RealThread_RTOS_RT-Thread/src/timer.c **** 
 100:Middlewares/Third_Party/RealThread_RTOS_RT-Thread/src/timer.c ****     /* initialize timer list */
 101:Middlewares/Third_Party/RealThread_RTOS_RT-Thread/src/timer.c ****     for (i = 0; i < RT_TIMER_SKIP_LIST_LEVEL; i++)
  52              		.loc 1 101 0
  53 0016 1346     		mov	r3, r2
  54              	.LVL3:
  55              	.L2:
  56              		.loc 1 101 0 is_stmt 0 discriminator 1
  57 0018 002B     		cmp	r3, #0
  58 001a 02DD     		ble	.L3
 102:Middlewares/Third_Party/RealThread_RTOS_RT-Thread/src/timer.c ****     {
 103:Middlewares/Third_Party/RealThread_RTOS_RT-Thread/src/timer.c ****         rt_list_init(&(timer->row[i]));
 104:Middlewares/Third_Party/RealThread_RTOS_RT-Thread/src/timer.c ****     }
 105:Middlewares/Third_Party/RealThread_RTOS_RT-Thread/src/timer.c **** }
  59              		.loc 1 105 0 is_stmt 1
  60 001c 5DF8044B 		ldr	r4, [sp], #4
  61              	.LCFI1:
  62              		.cfi_remember_state
  63              		.cfi_restore 4
  64              		.cfi_def_cfa_offset 0
  65              	.LVL4:
  66 0020 7047     		bx	lr
  67              	.LVL5:
ARM GAS  C:\Users\chuti\AppData\Local\Temp\cco5XJIB.s 			page 4


  68              	.L3:
  69              	.LCFI2:
  70              		.cfi_restore_state
 103:Middlewares/Third_Party/RealThread_RTOS_RT-Thread/src/timer.c ****     }
  71              		.loc 1 103 0 discriminator 3
  72 0022 9A1C     		adds	r2, r3, #2
  73 0024 00EBC202 		add	r2, r0, r2, lsl #3
  74 0028 111D     		adds	r1, r2, #4
  75              	.LVL6:
  76              	.LBB37:
  77              	.LBB38:
  78              		.file 2 "Middlewares/Third_Party/RealThread_RTOS_RT-Thread/include/rtservice.h"
   1:Middlewares/Third_Party/RealThread_RTOS_RT-Thread/include/rtservice.h **** /*
   2:Middlewares/Third_Party/RealThread_RTOS_RT-Thread/include/rtservice.h ****  * Copyright (c) 2006-2018, RT-Thread Development Team
   3:Middlewares/Third_Party/RealThread_RTOS_RT-Thread/include/rtservice.h ****  *
   4:Middlewares/Third_Party/RealThread_RTOS_RT-Thread/include/rtservice.h ****  * SPDX-License-Identifier: Apache-2.0
   5:Middlewares/Third_Party/RealThread_RTOS_RT-Thread/include/rtservice.h ****  *
   6:Middlewares/Third_Party/RealThread_RTOS_RT-Thread/include/rtservice.h ****  * Change Logs:
   7:Middlewares/Third_Party/RealThread_RTOS_RT-Thread/include/rtservice.h ****  * Date           Author       Notes
   8:Middlewares/Third_Party/RealThread_RTOS_RT-Thread/include/rtservice.h ****  * 2006-03-16     Bernard      the first version
   9:Middlewares/Third_Party/RealThread_RTOS_RT-Thread/include/rtservice.h ****  * 2006-09-07     Bernard      move the kservice APIs to rtthread.h
  10:Middlewares/Third_Party/RealThread_RTOS_RT-Thread/include/rtservice.h ****  * 2007-06-27     Bernard      fix the rt_list_remove bug
  11:Middlewares/Third_Party/RealThread_RTOS_RT-Thread/include/rtservice.h ****  * 2012-03-22     Bernard      rename kservice.h to rtservice.h
  12:Middlewares/Third_Party/RealThread_RTOS_RT-Thread/include/rtservice.h ****  * 2017-11-15     JasonJia     Modify rt_slist_foreach to rt_slist_for_each_entry.
  13:Middlewares/Third_Party/RealThread_RTOS_RT-Thread/include/rtservice.h ****  *                             Make code cleanup.
  14:Middlewares/Third_Party/RealThread_RTOS_RT-Thread/include/rtservice.h ****  */
  15:Middlewares/Third_Party/RealThread_RTOS_RT-Thread/include/rtservice.h **** 
  16:Middlewares/Third_Party/RealThread_RTOS_RT-Thread/include/rtservice.h **** #ifndef __RT_SERVICE_H__
  17:Middlewares/Third_Party/RealThread_RTOS_RT-Thread/include/rtservice.h **** #define __RT_SERVICE_H__
  18:Middlewares/Third_Party/RealThread_RTOS_RT-Thread/include/rtservice.h **** 
  19:Middlewares/Third_Party/RealThread_RTOS_RT-Thread/include/rtservice.h **** #ifdef __cplusplus
  20:Middlewares/Third_Party/RealThread_RTOS_RT-Thread/include/rtservice.h **** extern "C" {
  21:Middlewares/Third_Party/RealThread_RTOS_RT-Thread/include/rtservice.h **** #endif
  22:Middlewares/Third_Party/RealThread_RTOS_RT-Thread/include/rtservice.h **** 
  23:Middlewares/Third_Party/RealThread_RTOS_RT-Thread/include/rtservice.h **** /**
  24:Middlewares/Third_Party/RealThread_RTOS_RT-Thread/include/rtservice.h ****  * @addtogroup KernelService
  25:Middlewares/Third_Party/RealThread_RTOS_RT-Thread/include/rtservice.h ****  */
  26:Middlewares/Third_Party/RealThread_RTOS_RT-Thread/include/rtservice.h **** 
  27:Middlewares/Third_Party/RealThread_RTOS_RT-Thread/include/rtservice.h **** /**@{*/
  28:Middlewares/Third_Party/RealThread_RTOS_RT-Thread/include/rtservice.h **** 
  29:Middlewares/Third_Party/RealThread_RTOS_RT-Thread/include/rtservice.h **** /**
  30:Middlewares/Third_Party/RealThread_RTOS_RT-Thread/include/rtservice.h ****  * rt_container_of - return the member address of ptr, if the type of ptr is the
  31:Middlewares/Third_Party/RealThread_RTOS_RT-Thread/include/rtservice.h ****  * struct type.
  32:Middlewares/Third_Party/RealThread_RTOS_RT-Thread/include/rtservice.h ****  */
  33:Middlewares/Third_Party/RealThread_RTOS_RT-Thread/include/rtservice.h **** #define rt_container_of(ptr, type, member) \
  34:Middlewares/Third_Party/RealThread_RTOS_RT-Thread/include/rtservice.h ****     ((type *)((char *)(ptr) - (unsigned long)(&((type *)0)->member)))
  35:Middlewares/Third_Party/RealThread_RTOS_RT-Thread/include/rtservice.h **** 
  36:Middlewares/Third_Party/RealThread_RTOS_RT-Thread/include/rtservice.h **** 
  37:Middlewares/Third_Party/RealThread_RTOS_RT-Thread/include/rtservice.h **** /**
  38:Middlewares/Third_Party/RealThread_RTOS_RT-Thread/include/rtservice.h ****  * @brief initialize a list object
  39:Middlewares/Third_Party/RealThread_RTOS_RT-Thread/include/rtservice.h ****  */
  40:Middlewares/Third_Party/RealThread_RTOS_RT-Thread/include/rtservice.h **** #define RT_LIST_OBJECT_INIT(object) { &(object), &(object) }
  41:Middlewares/Third_Party/RealThread_RTOS_RT-Thread/include/rtservice.h **** 
  42:Middlewares/Third_Party/RealThread_RTOS_RT-Thread/include/rtservice.h **** /**
  43:Middlewares/Third_Party/RealThread_RTOS_RT-Thread/include/rtservice.h ****  * @brief initialize a list
  44:Middlewares/Third_Party/RealThread_RTOS_RT-Thread/include/rtservice.h ****  *
  45:Middlewares/Third_Party/RealThread_RTOS_RT-Thread/include/rtservice.h ****  * @param l list to be initialized
ARM GAS  C:\Users\chuti\AppData\Local\Temp\cco5XJIB.s 			page 5


  46:Middlewares/Third_Party/RealThread_RTOS_RT-Thread/include/rtservice.h ****  */
  47:Middlewares/Third_Party/RealThread_RTOS_RT-Thread/include/rtservice.h **** rt_inline void rt_list_init(rt_list_t *l)
  48:Middlewares/Third_Party/RealThread_RTOS_RT-Thread/include/rtservice.h **** {
  49:Middlewares/Third_Party/RealThread_RTOS_RT-Thread/include/rtservice.h ****     l->next = l->prev = l;
  79              		.loc 2 49 0 discriminator 3
  80 002a 9160     		str	r1, [r2, #8]
  81 002c 5160     		str	r1, [r2, #4]
  82              	.LVL7:
  83              	.LBE38:
  84              	.LBE37:
 101:Middlewares/Third_Party/RealThread_RTOS_RT-Thread/src/timer.c ****     {
  85              		.loc 1 101 0 discriminator 3
  86 002e 0133     		adds	r3, r3, #1
  87              	.LVL8:
  88 0030 F2E7     		b	.L2
  89              		.cfi_endproc
  90              	.LFE15:
  92              		.section	.text.rt_timer_list_next_timeout,"ax",%progbits
  93              		.align	1
  94              		.syntax unified
  95              		.thumb
  96              		.thumb_func
  97              		.fpu fpv4-sp-d16
  99              	rt_timer_list_next_timeout:
 100              	.LFB16:
 106:Middlewares/Third_Party/RealThread_RTOS_RT-Thread/src/timer.c **** 
 107:Middlewares/Third_Party/RealThread_RTOS_RT-Thread/src/timer.c **** /* the fist timer always in the last row */
 108:Middlewares/Third_Party/RealThread_RTOS_RT-Thread/src/timer.c **** static rt_tick_t rt_timer_list_next_timeout(rt_list_t timer_list[])
 109:Middlewares/Third_Party/RealThread_RTOS_RT-Thread/src/timer.c **** {
 101              		.loc 1 109 0
 102              		.cfi_startproc
 103              		@ args = 0, pretend = 0, frame = 0
 104              		@ frame_needed = 0, uses_anonymous_args = 0
 105              		@ link register save eliminated.
 106              	.LVL9:
 107              	.LBB39:
 108              	.LBB40:
  50:Middlewares/Third_Party/RealThread_RTOS_RT-Thread/include/rtservice.h **** }
  51:Middlewares/Third_Party/RealThread_RTOS_RT-Thread/include/rtservice.h **** 
  52:Middlewares/Third_Party/RealThread_RTOS_RT-Thread/include/rtservice.h **** /**
  53:Middlewares/Third_Party/RealThread_RTOS_RT-Thread/include/rtservice.h ****  * @brief insert a node after a list
  54:Middlewares/Third_Party/RealThread_RTOS_RT-Thread/include/rtservice.h ****  *
  55:Middlewares/Third_Party/RealThread_RTOS_RT-Thread/include/rtservice.h ****  * @param l list to insert it
  56:Middlewares/Third_Party/RealThread_RTOS_RT-Thread/include/rtservice.h ****  * @param n new node to be inserted
  57:Middlewares/Third_Party/RealThread_RTOS_RT-Thread/include/rtservice.h ****  */
  58:Middlewares/Third_Party/RealThread_RTOS_RT-Thread/include/rtservice.h **** rt_inline void rt_list_insert_after(rt_list_t *l, rt_list_t *n)
  59:Middlewares/Third_Party/RealThread_RTOS_RT-Thread/include/rtservice.h **** {
  60:Middlewares/Third_Party/RealThread_RTOS_RT-Thread/include/rtservice.h ****     l->next->prev = n;
  61:Middlewares/Third_Party/RealThread_RTOS_RT-Thread/include/rtservice.h ****     n->next = l->next;
  62:Middlewares/Third_Party/RealThread_RTOS_RT-Thread/include/rtservice.h **** 
  63:Middlewares/Third_Party/RealThread_RTOS_RT-Thread/include/rtservice.h ****     l->next = n;
  64:Middlewares/Third_Party/RealThread_RTOS_RT-Thread/include/rtservice.h ****     n->prev = l;
  65:Middlewares/Third_Party/RealThread_RTOS_RT-Thread/include/rtservice.h **** }
  66:Middlewares/Third_Party/RealThread_RTOS_RT-Thread/include/rtservice.h **** 
  67:Middlewares/Third_Party/RealThread_RTOS_RT-Thread/include/rtservice.h **** /**
  68:Middlewares/Third_Party/RealThread_RTOS_RT-Thread/include/rtservice.h ****  * @brief insert a node before a list
  69:Middlewares/Third_Party/RealThread_RTOS_RT-Thread/include/rtservice.h ****  *
ARM GAS  C:\Users\chuti\AppData\Local\Temp\cco5XJIB.s 			page 6


  70:Middlewares/Third_Party/RealThread_RTOS_RT-Thread/include/rtservice.h ****  * @param n new node to be inserted
  71:Middlewares/Third_Party/RealThread_RTOS_RT-Thread/include/rtservice.h ****  * @param l list to insert it
  72:Middlewares/Third_Party/RealThread_RTOS_RT-Thread/include/rtservice.h ****  */
  73:Middlewares/Third_Party/RealThread_RTOS_RT-Thread/include/rtservice.h **** rt_inline void rt_list_insert_before(rt_list_t *l, rt_list_t *n)
  74:Middlewares/Third_Party/RealThread_RTOS_RT-Thread/include/rtservice.h **** {
  75:Middlewares/Third_Party/RealThread_RTOS_RT-Thread/include/rtservice.h ****     l->prev->next = n;
  76:Middlewares/Third_Party/RealThread_RTOS_RT-Thread/include/rtservice.h ****     n->prev = l->prev;
  77:Middlewares/Third_Party/RealThread_RTOS_RT-Thread/include/rtservice.h **** 
  78:Middlewares/Third_Party/RealThread_RTOS_RT-Thread/include/rtservice.h ****     l->prev = n;
  79:Middlewares/Third_Party/RealThread_RTOS_RT-Thread/include/rtservice.h ****     n->next = l;
  80:Middlewares/Third_Party/RealThread_RTOS_RT-Thread/include/rtservice.h **** }
  81:Middlewares/Third_Party/RealThread_RTOS_RT-Thread/include/rtservice.h **** 
  82:Middlewares/Third_Party/RealThread_RTOS_RT-Thread/include/rtservice.h **** /**
  83:Middlewares/Third_Party/RealThread_RTOS_RT-Thread/include/rtservice.h ****  * @brief remove node from list.
  84:Middlewares/Third_Party/RealThread_RTOS_RT-Thread/include/rtservice.h ****  * @param n the node to remove from the list.
  85:Middlewares/Third_Party/RealThread_RTOS_RT-Thread/include/rtservice.h ****  */
  86:Middlewares/Third_Party/RealThread_RTOS_RT-Thread/include/rtservice.h **** rt_inline void rt_list_remove(rt_list_t *n)
  87:Middlewares/Third_Party/RealThread_RTOS_RT-Thread/include/rtservice.h **** {
  88:Middlewares/Third_Party/RealThread_RTOS_RT-Thread/include/rtservice.h ****     n->next->prev = n->prev;
  89:Middlewares/Third_Party/RealThread_RTOS_RT-Thread/include/rtservice.h ****     n->prev->next = n->next;
  90:Middlewares/Third_Party/RealThread_RTOS_RT-Thread/include/rtservice.h **** 
  91:Middlewares/Third_Party/RealThread_RTOS_RT-Thread/include/rtservice.h ****     n->next = n->prev = n;
  92:Middlewares/Third_Party/RealThread_RTOS_RT-Thread/include/rtservice.h **** }
  93:Middlewares/Third_Party/RealThread_RTOS_RT-Thread/include/rtservice.h **** 
  94:Middlewares/Third_Party/RealThread_RTOS_RT-Thread/include/rtservice.h **** /**
  95:Middlewares/Third_Party/RealThread_RTOS_RT-Thread/include/rtservice.h ****  * @brief tests whether a list is empty
  96:Middlewares/Third_Party/RealThread_RTOS_RT-Thread/include/rtservice.h ****  * @param l the list to test.
  97:Middlewares/Third_Party/RealThread_RTOS_RT-Thread/include/rtservice.h ****  */
  98:Middlewares/Third_Party/RealThread_RTOS_RT-Thread/include/rtservice.h **** rt_inline int rt_list_isempty(const rt_list_t *l)
  99:Middlewares/Third_Party/RealThread_RTOS_RT-Thread/include/rtservice.h **** {
 100:Middlewares/Third_Party/RealThread_RTOS_RT-Thread/include/rtservice.h ****     return l->next == l;
 109              		.loc 2 100 0
 110 0000 0368     		ldr	r3, [r0]
 111              	.LVL10:
 112              	.LBE40:
 113              	.LBE39:
 110:Middlewares/Third_Party/RealThread_RTOS_RT-Thread/src/timer.c ****     struct rt_timer *timer;
 111:Middlewares/Third_Party/RealThread_RTOS_RT-Thread/src/timer.c **** 
 112:Middlewares/Third_Party/RealThread_RTOS_RT-Thread/src/timer.c ****     if (rt_list_isempty(&timer_list[RT_TIMER_SKIP_LIST_LEVEL - 1]))
 114              		.loc 1 112 0
 115 0002 9842     		cmp	r0, r3
 116 0004 01D0     		beq	.L7
 117              	.LVL11:
 113:Middlewares/Third_Party/RealThread_RTOS_RT-Thread/src/timer.c ****         return RT_TICK_MAX;
 114:Middlewares/Third_Party/RealThread_RTOS_RT-Thread/src/timer.c **** 
 115:Middlewares/Third_Party/RealThread_RTOS_RT-Thread/src/timer.c ****     timer = rt_list_entry(timer_list[RT_TIMER_SKIP_LIST_LEVEL - 1].next,
 116:Middlewares/Third_Party/RealThread_RTOS_RT-Thread/src/timer.c ****                           struct rt_timer, row[RT_TIMER_SKIP_LIST_LEVEL - 1]);
 117:Middlewares/Third_Party/RealThread_RTOS_RT-Thread/src/timer.c **** 
 118:Middlewares/Third_Party/RealThread_RTOS_RT-Thread/src/timer.c ****     return timer->timeout_tick;
 118              		.loc 1 118 0
 119 0006 5869     		ldr	r0, [r3, #20]
 120              	.LVL12:
 121 0008 7047     		bx	lr
 122              	.LVL13:
 123              	.L7:
 113:Middlewares/Third_Party/RealThread_RTOS_RT-Thread/src/timer.c ****         return RT_TICK_MAX;
 124              		.loc 1 113 0
ARM GAS  C:\Users\chuti\AppData\Local\Temp\cco5XJIB.s 			page 7


 125 000a 4FF0FF30 		mov	r0, #-1
 126              	.LVL14:
 119:Middlewares/Third_Party/RealThread_RTOS_RT-Thread/src/timer.c **** }
 127              		.loc 1 119 0
 128 000e 7047     		bx	lr
 129              		.cfi_endproc
 130              	.LFE16:
 132              		.section	.text.rt_timer_init,"ax",%progbits
 133              		.align	1
 134              		.global	rt_timer_init
 135              		.syntax unified
 136              		.thumb
 137              		.thumb_func
 138              		.fpu fpv4-sp-d16
 140              	rt_timer_init:
 141              	.LFB18:
 120:Middlewares/Third_Party/RealThread_RTOS_RT-Thread/src/timer.c **** 
 121:Middlewares/Third_Party/RealThread_RTOS_RT-Thread/src/timer.c **** rt_inline void _rt_timer_remove(rt_timer_t timer)
 122:Middlewares/Third_Party/RealThread_RTOS_RT-Thread/src/timer.c **** {
 123:Middlewares/Third_Party/RealThread_RTOS_RT-Thread/src/timer.c ****     int i;
 124:Middlewares/Third_Party/RealThread_RTOS_RT-Thread/src/timer.c **** 
 125:Middlewares/Third_Party/RealThread_RTOS_RT-Thread/src/timer.c ****     for (i = 0; i < RT_TIMER_SKIP_LIST_LEVEL; i++)
 126:Middlewares/Third_Party/RealThread_RTOS_RT-Thread/src/timer.c ****     {
 127:Middlewares/Third_Party/RealThread_RTOS_RT-Thread/src/timer.c ****         rt_list_remove(&timer->row[i]);
 128:Middlewares/Third_Party/RealThread_RTOS_RT-Thread/src/timer.c ****     }
 129:Middlewares/Third_Party/RealThread_RTOS_RT-Thread/src/timer.c **** }
 130:Middlewares/Third_Party/RealThread_RTOS_RT-Thread/src/timer.c **** 
 131:Middlewares/Third_Party/RealThread_RTOS_RT-Thread/src/timer.c **** #if RT_DEBUG_TIMER
 132:Middlewares/Third_Party/RealThread_RTOS_RT-Thread/src/timer.c **** static int rt_timer_count_height(struct rt_timer *timer)
 133:Middlewares/Third_Party/RealThread_RTOS_RT-Thread/src/timer.c **** {
 134:Middlewares/Third_Party/RealThread_RTOS_RT-Thread/src/timer.c ****     int i, cnt = 0;
 135:Middlewares/Third_Party/RealThread_RTOS_RT-Thread/src/timer.c **** 
 136:Middlewares/Third_Party/RealThread_RTOS_RT-Thread/src/timer.c ****     for (i = 0; i < RT_TIMER_SKIP_LIST_LEVEL; i++)
 137:Middlewares/Third_Party/RealThread_RTOS_RT-Thread/src/timer.c ****     {
 138:Middlewares/Third_Party/RealThread_RTOS_RT-Thread/src/timer.c ****         if (!rt_list_isempty(&timer->row[i]))
 139:Middlewares/Third_Party/RealThread_RTOS_RT-Thread/src/timer.c ****             cnt++;
 140:Middlewares/Third_Party/RealThread_RTOS_RT-Thread/src/timer.c ****     }
 141:Middlewares/Third_Party/RealThread_RTOS_RT-Thread/src/timer.c ****     return cnt;
 142:Middlewares/Third_Party/RealThread_RTOS_RT-Thread/src/timer.c **** }
 143:Middlewares/Third_Party/RealThread_RTOS_RT-Thread/src/timer.c **** 
 144:Middlewares/Third_Party/RealThread_RTOS_RT-Thread/src/timer.c **** void rt_timer_dump(rt_list_t timer_heads[])
 145:Middlewares/Third_Party/RealThread_RTOS_RT-Thread/src/timer.c **** {
 146:Middlewares/Third_Party/RealThread_RTOS_RT-Thread/src/timer.c ****     rt_list_t *list;
 147:Middlewares/Third_Party/RealThread_RTOS_RT-Thread/src/timer.c **** 
 148:Middlewares/Third_Party/RealThread_RTOS_RT-Thread/src/timer.c ****     for (list = timer_heads[RT_TIMER_SKIP_LIST_LEVEL - 1].next;
 149:Middlewares/Third_Party/RealThread_RTOS_RT-Thread/src/timer.c ****          list != &timer_heads[RT_TIMER_SKIP_LIST_LEVEL - 1];
 150:Middlewares/Third_Party/RealThread_RTOS_RT-Thread/src/timer.c ****          list = list->next)
 151:Middlewares/Third_Party/RealThread_RTOS_RT-Thread/src/timer.c ****     {
 152:Middlewares/Third_Party/RealThread_RTOS_RT-Thread/src/timer.c ****         struct rt_timer *timer = rt_list_entry(list,
 153:Middlewares/Third_Party/RealThread_RTOS_RT-Thread/src/timer.c ****                                                struct rt_timer,
 154:Middlewares/Third_Party/RealThread_RTOS_RT-Thread/src/timer.c ****                                                row[RT_TIMER_SKIP_LIST_LEVEL - 1]);
 155:Middlewares/Third_Party/RealThread_RTOS_RT-Thread/src/timer.c ****         rt_kprintf("%d", rt_timer_count_height(timer));
 156:Middlewares/Third_Party/RealThread_RTOS_RT-Thread/src/timer.c ****     }
 157:Middlewares/Third_Party/RealThread_RTOS_RT-Thread/src/timer.c ****     rt_kprintf("\n");
 158:Middlewares/Third_Party/RealThread_RTOS_RT-Thread/src/timer.c **** }
 159:Middlewares/Third_Party/RealThread_RTOS_RT-Thread/src/timer.c **** #endif
 160:Middlewares/Third_Party/RealThread_RTOS_RT-Thread/src/timer.c **** 
ARM GAS  C:\Users\chuti\AppData\Local\Temp\cco5XJIB.s 			page 8


 161:Middlewares/Third_Party/RealThread_RTOS_RT-Thread/src/timer.c **** /**
 162:Middlewares/Third_Party/RealThread_RTOS_RT-Thread/src/timer.c ****  * @addtogroup Clock
 163:Middlewares/Third_Party/RealThread_RTOS_RT-Thread/src/timer.c ****  */
 164:Middlewares/Third_Party/RealThread_RTOS_RT-Thread/src/timer.c **** 
 165:Middlewares/Third_Party/RealThread_RTOS_RT-Thread/src/timer.c **** /**@{*/
 166:Middlewares/Third_Party/RealThread_RTOS_RT-Thread/src/timer.c **** 
 167:Middlewares/Third_Party/RealThread_RTOS_RT-Thread/src/timer.c **** /**
 168:Middlewares/Third_Party/RealThread_RTOS_RT-Thread/src/timer.c ****  * This function will initialize a timer, normally this function is used to
 169:Middlewares/Third_Party/RealThread_RTOS_RT-Thread/src/timer.c ****  * initialize a static timer object.
 170:Middlewares/Third_Party/RealThread_RTOS_RT-Thread/src/timer.c ****  *
 171:Middlewares/Third_Party/RealThread_RTOS_RT-Thread/src/timer.c ****  * @param timer the static timer object
 172:Middlewares/Third_Party/RealThread_RTOS_RT-Thread/src/timer.c ****  * @param name the name of timer
 173:Middlewares/Third_Party/RealThread_RTOS_RT-Thread/src/timer.c ****  * @param timeout the timeout function
 174:Middlewares/Third_Party/RealThread_RTOS_RT-Thread/src/timer.c ****  * @param parameter the parameter of timeout function
 175:Middlewares/Third_Party/RealThread_RTOS_RT-Thread/src/timer.c ****  * @param time the tick of timer
 176:Middlewares/Third_Party/RealThread_RTOS_RT-Thread/src/timer.c ****  * @param flag the flag of timer
 177:Middlewares/Third_Party/RealThread_RTOS_RT-Thread/src/timer.c ****  */
 178:Middlewares/Third_Party/RealThread_RTOS_RT-Thread/src/timer.c **** void rt_timer_init(rt_timer_t  timer,
 179:Middlewares/Third_Party/RealThread_RTOS_RT-Thread/src/timer.c ****                    const char *name,
 180:Middlewares/Third_Party/RealThread_RTOS_RT-Thread/src/timer.c ****                    void (*timeout)(void *parameter),
 181:Middlewares/Third_Party/RealThread_RTOS_RT-Thread/src/timer.c ****                    void       *parameter,
 182:Middlewares/Third_Party/RealThread_RTOS_RT-Thread/src/timer.c ****                    rt_tick_t   time,
 183:Middlewares/Third_Party/RealThread_RTOS_RT-Thread/src/timer.c ****                    rt_uint8_t  flag)
 184:Middlewares/Third_Party/RealThread_RTOS_RT-Thread/src/timer.c **** {
 142              		.loc 1 184 0
 143              		.cfi_startproc
 144              		@ args = 8, pretend = 0, frame = 0
 145              		@ frame_needed = 0, uses_anonymous_args = 0
 146              	.LVL15:
 147 0000 70B5     		push	{r4, r5, r6, lr}
 148              	.LCFI3:
 149              		.cfi_def_cfa_offset 16
 150              		.cfi_offset 4, -16
 151              		.cfi_offset 5, -12
 152              		.cfi_offset 6, -8
 153              		.cfi_offset 14, -4
 154 0002 82B0     		sub	sp, sp, #8
 155              	.LCFI4:
 156              		.cfi_def_cfa_offset 24
 157 0004 0446     		mov	r4, r0
 158 0006 1546     		mov	r5, r2
 159 0008 1E46     		mov	r6, r3
 185:Middlewares/Third_Party/RealThread_RTOS_RT-Thread/src/timer.c ****     /* timer check */
 186:Middlewares/Third_Party/RealThread_RTOS_RT-Thread/src/timer.c ****     RT_ASSERT(timer != RT_NULL);
 187:Middlewares/Third_Party/RealThread_RTOS_RT-Thread/src/timer.c **** 
 188:Middlewares/Third_Party/RealThread_RTOS_RT-Thread/src/timer.c ****     /* timer object initialization */
 189:Middlewares/Third_Party/RealThread_RTOS_RT-Thread/src/timer.c ****     rt_object_init((rt_object_t)timer, RT_Object_Class_Timer, name);
 160              		.loc 1 189 0
 161 000a 0A46     		mov	r2, r1
 162              	.LVL16:
 163 000c 0A21     		movs	r1, #10
 164              	.LVL17:
 165 000e FFF7FEFF 		bl	rt_object_init
 166              	.LVL18:
 190:Middlewares/Third_Party/RealThread_RTOS_RT-Thread/src/timer.c **** 
 191:Middlewares/Third_Party/RealThread_RTOS_RT-Thread/src/timer.c ****     _rt_timer_init(timer, timeout, parameter, time, flag);
 167              		.loc 1 191 0
ARM GAS  C:\Users\chuti\AppData\Local\Temp\cco5XJIB.s 			page 9


 168 0012 9DF81C30 		ldrb	r3, [sp, #28]	@ zero_extendqisi2
 169 0016 0093     		str	r3, [sp]
 170 0018 069B     		ldr	r3, [sp, #24]
 171 001a 3246     		mov	r2, r6
 172 001c 2946     		mov	r1, r5
 173 001e 2046     		mov	r0, r4
 174 0020 FFF7FEFF 		bl	_rt_timer_init
 175              	.LVL19:
 192:Middlewares/Third_Party/RealThread_RTOS_RT-Thread/src/timer.c **** }
 176              		.loc 1 192 0
 177 0024 02B0     		add	sp, sp, #8
 178              	.LCFI5:
 179              		.cfi_def_cfa_offset 16
 180              		@ sp needed
 181 0026 70BD     		pop	{r4, r5, r6, pc}
 182              		.cfi_endproc
 183              	.LFE18:
 185              		.section	.text.rt_timer_detach,"ax",%progbits
 186              		.align	1
 187              		.global	rt_timer_detach
 188              		.syntax unified
 189              		.thumb
 190              		.thumb_func
 191              		.fpu fpv4-sp-d16
 193              	rt_timer_detach:
 194              	.LFB19:
 193:Middlewares/Third_Party/RealThread_RTOS_RT-Thread/src/timer.c **** RTM_EXPORT(rt_timer_init);
 194:Middlewares/Third_Party/RealThread_RTOS_RT-Thread/src/timer.c **** 
 195:Middlewares/Third_Party/RealThread_RTOS_RT-Thread/src/timer.c **** /**
 196:Middlewares/Third_Party/RealThread_RTOS_RT-Thread/src/timer.c ****  * This function will detach a timer from timer management.
 197:Middlewares/Third_Party/RealThread_RTOS_RT-Thread/src/timer.c ****  *
 198:Middlewares/Third_Party/RealThread_RTOS_RT-Thread/src/timer.c ****  * @param timer the static timer object
 199:Middlewares/Third_Party/RealThread_RTOS_RT-Thread/src/timer.c ****  *
 200:Middlewares/Third_Party/RealThread_RTOS_RT-Thread/src/timer.c ****  * @return the operation status, RT_EOK on OK; RT_ERROR on error
 201:Middlewares/Third_Party/RealThread_RTOS_RT-Thread/src/timer.c ****  */
 202:Middlewares/Third_Party/RealThread_RTOS_RT-Thread/src/timer.c **** rt_err_t rt_timer_detach(rt_timer_t timer)
 203:Middlewares/Third_Party/RealThread_RTOS_RT-Thread/src/timer.c **** {
 195              		.loc 1 203 0
 196              		.cfi_startproc
 197              		@ args = 0, pretend = 0, frame = 0
 198              		@ frame_needed = 0, uses_anonymous_args = 0
 199              	.LVL20:
 200 0000 70B5     		push	{r4, r5, r6, lr}
 201              	.LCFI6:
 202              		.cfi_def_cfa_offset 16
 203              		.cfi_offset 4, -16
 204              		.cfi_offset 5, -12
 205              		.cfi_offset 6, -8
 206              		.cfi_offset 14, -4
 207 0002 0446     		mov	r4, r0
 204:Middlewares/Third_Party/RealThread_RTOS_RT-Thread/src/timer.c ****     register rt_base_t level;
 205:Middlewares/Third_Party/RealThread_RTOS_RT-Thread/src/timer.c **** 
 206:Middlewares/Third_Party/RealThread_RTOS_RT-Thread/src/timer.c ****     /* timer check */
 207:Middlewares/Third_Party/RealThread_RTOS_RT-Thread/src/timer.c ****     RT_ASSERT(timer != RT_NULL);
 208:Middlewares/Third_Party/RealThread_RTOS_RT-Thread/src/timer.c ****     RT_ASSERT(rt_object_get_type(&timer->parent) == RT_Object_Class_Timer);
 209:Middlewares/Third_Party/RealThread_RTOS_RT-Thread/src/timer.c ****     RT_ASSERT(rt_object_is_systemobject(&timer->parent));
 210:Middlewares/Third_Party/RealThread_RTOS_RT-Thread/src/timer.c **** 
ARM GAS  C:\Users\chuti\AppData\Local\Temp\cco5XJIB.s 			page 10


 211:Middlewares/Third_Party/RealThread_RTOS_RT-Thread/src/timer.c ****     /* disable interrupt */
 212:Middlewares/Third_Party/RealThread_RTOS_RT-Thread/src/timer.c ****     level = rt_hw_interrupt_disable();
 208              		.loc 1 212 0
 209 0004 FFF7FEFF 		bl	rt_hw_interrupt_disable
 210              	.LVL21:
 211              	.LBB41:
 212              	.LBB42:
 125:Middlewares/Third_Party/RealThread_RTOS_RT-Thread/src/timer.c ****     {
 213              		.loc 1 125 0
 214 0008 0022     		movs	r2, #0
 215              	.LVL22:
 216              	.L11:
 217 000a 002A     		cmp	r2, #0
 218 000c 06DD     		ble	.L12
 219              	.LVL23:
 220              	.LBE42:
 221              	.LBE41:
 213:Middlewares/Third_Party/RealThread_RTOS_RT-Thread/src/timer.c **** 
 214:Middlewares/Third_Party/RealThread_RTOS_RT-Thread/src/timer.c ****     _rt_timer_remove(timer);
 215:Middlewares/Third_Party/RealThread_RTOS_RT-Thread/src/timer.c **** 
 216:Middlewares/Third_Party/RealThread_RTOS_RT-Thread/src/timer.c ****     /* enable interrupt */
 217:Middlewares/Third_Party/RealThread_RTOS_RT-Thread/src/timer.c ****     rt_hw_interrupt_enable(level);
 222              		.loc 1 217 0
 223 000e FFF7FEFF 		bl	rt_hw_interrupt_enable
 224              	.LVL24:
 218:Middlewares/Third_Party/RealThread_RTOS_RT-Thread/src/timer.c **** 
 219:Middlewares/Third_Party/RealThread_RTOS_RT-Thread/src/timer.c ****     rt_object_detach((rt_object_t)timer);
 225              		.loc 1 219 0
 226 0012 2046     		mov	r0, r4
 227 0014 FFF7FEFF 		bl	rt_object_detach
 228              	.LVL25:
 220:Middlewares/Third_Party/RealThread_RTOS_RT-Thread/src/timer.c **** 
 221:Middlewares/Third_Party/RealThread_RTOS_RT-Thread/src/timer.c ****     return RT_EOK;
 222:Middlewares/Third_Party/RealThread_RTOS_RT-Thread/src/timer.c **** }
 229              		.loc 1 222 0
 230 0018 0020     		movs	r0, #0
 231 001a 70BD     		pop	{r4, r5, r6, pc}
 232              	.LVL26:
 233              	.L12:
 234              	.LBB46:
 235              	.LBB45:
 127:Middlewares/Third_Party/RealThread_RTOS_RT-Thread/src/timer.c ****     }
 236              		.loc 1 127 0
 237 001c 931C     		adds	r3, r2, #2
 238 001e 04EBC303 		add	r3, r4, r3, lsl #3
 239 0022 191D     		adds	r1, r3, #4
 240              	.LVL27:
 241              	.LBB43:
 242              	.LBB44:
  88:Middlewares/Third_Party/RealThread_RTOS_RT-Thread/include/rtservice.h ****     n->prev->next = n->next;
 243              		.loc 2 88 0
 244 0024 5D68     		ldr	r5, [r3, #4]
 245 0026 9E68     		ldr	r6, [r3, #8]
 246 0028 6E60     		str	r6, [r5, #4]
  89:Middlewares/Third_Party/RealThread_RTOS_RT-Thread/include/rtservice.h **** 
 247              		.loc 2 89 0
 248 002a 9D68     		ldr	r5, [r3, #8]
ARM GAS  C:\Users\chuti\AppData\Local\Temp\cco5XJIB.s 			page 11


 249 002c 5E68     		ldr	r6, [r3, #4]
 250 002e 2E60     		str	r6, [r5]
  91:Middlewares/Third_Party/RealThread_RTOS_RT-Thread/include/rtservice.h **** }
 251              		.loc 2 91 0
 252 0030 9960     		str	r1, [r3, #8]
 253 0032 5960     		str	r1, [r3, #4]
 254              	.LVL28:
 255              	.LBE44:
 256              	.LBE43:
 125:Middlewares/Third_Party/RealThread_RTOS_RT-Thread/src/timer.c ****     {
 257              		.loc 1 125 0
 258 0034 0132     		adds	r2, r2, #1
 259              	.LVL29:
 260 0036 E8E7     		b	.L11
 261              	.LBE45:
 262              	.LBE46:
 263              		.cfi_endproc
 264              	.LFE19:
 266              		.section	.text.rt_timer_create,"ax",%progbits
 267              		.align	1
 268              		.global	rt_timer_create
 269              		.syntax unified
 270              		.thumb
 271              		.thumb_func
 272              		.fpu fpv4-sp-d16
 274              	rt_timer_create:
 275              	.LFB20:
 223:Middlewares/Third_Party/RealThread_RTOS_RT-Thread/src/timer.c **** RTM_EXPORT(rt_timer_detach);
 224:Middlewares/Third_Party/RealThread_RTOS_RT-Thread/src/timer.c **** 
 225:Middlewares/Third_Party/RealThread_RTOS_RT-Thread/src/timer.c **** #ifdef RT_USING_HEAP
 226:Middlewares/Third_Party/RealThread_RTOS_RT-Thread/src/timer.c **** /**
 227:Middlewares/Third_Party/RealThread_RTOS_RT-Thread/src/timer.c ****  * This function will create a timer
 228:Middlewares/Third_Party/RealThread_RTOS_RT-Thread/src/timer.c ****  *
 229:Middlewares/Third_Party/RealThread_RTOS_RT-Thread/src/timer.c ****  * @param name the name of timer
 230:Middlewares/Third_Party/RealThread_RTOS_RT-Thread/src/timer.c ****  * @param timeout the timeout function
 231:Middlewares/Third_Party/RealThread_RTOS_RT-Thread/src/timer.c ****  * @param parameter the parameter of timeout function
 232:Middlewares/Third_Party/RealThread_RTOS_RT-Thread/src/timer.c ****  * @param time the tick of timer
 233:Middlewares/Third_Party/RealThread_RTOS_RT-Thread/src/timer.c ****  * @param flag the flag of timer
 234:Middlewares/Third_Party/RealThread_RTOS_RT-Thread/src/timer.c ****  *
 235:Middlewares/Third_Party/RealThread_RTOS_RT-Thread/src/timer.c ****  * @return the created timer object
 236:Middlewares/Third_Party/RealThread_RTOS_RT-Thread/src/timer.c ****  */
 237:Middlewares/Third_Party/RealThread_RTOS_RT-Thread/src/timer.c **** rt_timer_t rt_timer_create(const char *name,
 238:Middlewares/Third_Party/RealThread_RTOS_RT-Thread/src/timer.c ****                            void (*timeout)(void *parameter),
 239:Middlewares/Third_Party/RealThread_RTOS_RT-Thread/src/timer.c ****                            void       *parameter,
 240:Middlewares/Third_Party/RealThread_RTOS_RT-Thread/src/timer.c ****                            rt_tick_t   time,
 241:Middlewares/Third_Party/RealThread_RTOS_RT-Thread/src/timer.c ****                            rt_uint8_t  flag)
 242:Middlewares/Third_Party/RealThread_RTOS_RT-Thread/src/timer.c **** {
 276              		.loc 1 242 0
 277              		.cfi_startproc
 278              		@ args = 4, pretend = 0, frame = 0
 279              		@ frame_needed = 0, uses_anonymous_args = 0
 280              	.LVL30:
 281 0000 F0B5     		push	{r4, r5, r6, r7, lr}
 282              	.LCFI7:
 283              		.cfi_def_cfa_offset 20
 284              		.cfi_offset 4, -20
 285              		.cfi_offset 5, -16
ARM GAS  C:\Users\chuti\AppData\Local\Temp\cco5XJIB.s 			page 12


 286              		.cfi_offset 6, -12
 287              		.cfi_offset 7, -8
 288              		.cfi_offset 14, -4
 289 0002 83B0     		sub	sp, sp, #12
 290              	.LCFI8:
 291              		.cfi_def_cfa_offset 32
 292 0004 0D46     		mov	r5, r1
 293 0006 1646     		mov	r6, r2
 294 0008 1F46     		mov	r7, r3
 243:Middlewares/Third_Party/RealThread_RTOS_RT-Thread/src/timer.c ****     struct rt_timer *timer;
 244:Middlewares/Third_Party/RealThread_RTOS_RT-Thread/src/timer.c **** 
 245:Middlewares/Third_Party/RealThread_RTOS_RT-Thread/src/timer.c ****     /* allocate a object */
 246:Middlewares/Third_Party/RealThread_RTOS_RT-Thread/src/timer.c ****     timer = (struct rt_timer *)rt_object_allocate(RT_Object_Class_Timer, name);
 295              		.loc 1 246 0
 296 000a 0146     		mov	r1, r0
 297              	.LVL31:
 298 000c 0A20     		movs	r0, #10
 299              	.LVL32:
 300 000e FFF7FEFF 		bl	rt_object_allocate
 301              	.LVL33:
 247:Middlewares/Third_Party/RealThread_RTOS_RT-Thread/src/timer.c ****     if (timer == RT_NULL)
 302              		.loc 1 247 0
 303 0012 58B1     		cbz	r0, .L16
 304 0014 0446     		mov	r4, r0
 248:Middlewares/Third_Party/RealThread_RTOS_RT-Thread/src/timer.c ****     {
 249:Middlewares/Third_Party/RealThread_RTOS_RT-Thread/src/timer.c ****         return RT_NULL;
 250:Middlewares/Third_Party/RealThread_RTOS_RT-Thread/src/timer.c ****     }
 251:Middlewares/Third_Party/RealThread_RTOS_RT-Thread/src/timer.c **** 
 252:Middlewares/Third_Party/RealThread_RTOS_RT-Thread/src/timer.c ****     _rt_timer_init(timer, timeout, parameter, time, flag);
 305              		.loc 1 252 0
 306 0016 9DF82030 		ldrb	r3, [sp, #32]	@ zero_extendqisi2
 307 001a 0093     		str	r3, [sp]
 308 001c 3B46     		mov	r3, r7
 309 001e 3246     		mov	r2, r6
 310 0020 2946     		mov	r1, r5
 311 0022 FFF7FEFF 		bl	_rt_timer_init
 312              	.LVL34:
 313              	.L14:
 253:Middlewares/Third_Party/RealThread_RTOS_RT-Thread/src/timer.c **** 
 254:Middlewares/Third_Party/RealThread_RTOS_RT-Thread/src/timer.c ****     return timer;
 255:Middlewares/Third_Party/RealThread_RTOS_RT-Thread/src/timer.c **** }
 314              		.loc 1 255 0
 315 0026 2046     		mov	r0, r4
 316 0028 03B0     		add	sp, sp, #12
 317              	.LCFI9:
 318              		.cfi_remember_state
 319              		.cfi_def_cfa_offset 20
 320              		@ sp needed
 321 002a F0BD     		pop	{r4, r5, r6, r7, pc}
 322              	.LVL35:
 323              	.L16:
 324              	.LCFI10:
 325              		.cfi_restore_state
 249:Middlewares/Third_Party/RealThread_RTOS_RT-Thread/src/timer.c ****     }
 326              		.loc 1 249 0
 327 002c 0024     		movs	r4, #0
 328 002e FAE7     		b	.L14
ARM GAS  C:\Users\chuti\AppData\Local\Temp\cco5XJIB.s 			page 13


 329              		.cfi_endproc
 330              	.LFE20:
 332              		.section	.text.rt_timer_delete,"ax",%progbits
 333              		.align	1
 334              		.global	rt_timer_delete
 335              		.syntax unified
 336              		.thumb
 337              		.thumb_func
 338              		.fpu fpv4-sp-d16
 340              	rt_timer_delete:
 341              	.LFB21:
 256:Middlewares/Third_Party/RealThread_RTOS_RT-Thread/src/timer.c **** RTM_EXPORT(rt_timer_create);
 257:Middlewares/Third_Party/RealThread_RTOS_RT-Thread/src/timer.c **** 
 258:Middlewares/Third_Party/RealThread_RTOS_RT-Thread/src/timer.c **** /**
 259:Middlewares/Third_Party/RealThread_RTOS_RT-Thread/src/timer.c ****  * This function will delete a timer and release timer memory
 260:Middlewares/Third_Party/RealThread_RTOS_RT-Thread/src/timer.c ****  *
 261:Middlewares/Third_Party/RealThread_RTOS_RT-Thread/src/timer.c ****  * @param timer the timer to be deleted
 262:Middlewares/Third_Party/RealThread_RTOS_RT-Thread/src/timer.c ****  *
 263:Middlewares/Third_Party/RealThread_RTOS_RT-Thread/src/timer.c ****  * @return the operation status, RT_EOK on OK; RT_ERROR on error
 264:Middlewares/Third_Party/RealThread_RTOS_RT-Thread/src/timer.c ****  */
 265:Middlewares/Third_Party/RealThread_RTOS_RT-Thread/src/timer.c **** rt_err_t rt_timer_delete(rt_timer_t timer)
 266:Middlewares/Third_Party/RealThread_RTOS_RT-Thread/src/timer.c **** {
 342              		.loc 1 266 0
 343              		.cfi_startproc
 344              		@ args = 0, pretend = 0, frame = 0
 345              		@ frame_needed = 0, uses_anonymous_args = 0
 346              	.LVL36:
 347 0000 70B5     		push	{r4, r5, r6, lr}
 348              	.LCFI11:
 349              		.cfi_def_cfa_offset 16
 350              		.cfi_offset 4, -16
 351              		.cfi_offset 5, -12
 352              		.cfi_offset 6, -8
 353              		.cfi_offset 14, -4
 354 0002 0446     		mov	r4, r0
 267:Middlewares/Third_Party/RealThread_RTOS_RT-Thread/src/timer.c ****     register rt_base_t level;
 268:Middlewares/Third_Party/RealThread_RTOS_RT-Thread/src/timer.c **** 
 269:Middlewares/Third_Party/RealThread_RTOS_RT-Thread/src/timer.c ****     /* timer check */
 270:Middlewares/Third_Party/RealThread_RTOS_RT-Thread/src/timer.c ****     RT_ASSERT(timer != RT_NULL);
 271:Middlewares/Third_Party/RealThread_RTOS_RT-Thread/src/timer.c ****     RT_ASSERT(rt_object_get_type(&timer->parent) == RT_Object_Class_Timer);
 272:Middlewares/Third_Party/RealThread_RTOS_RT-Thread/src/timer.c ****     RT_ASSERT(rt_object_is_systemobject(&timer->parent) == RT_FALSE);
 273:Middlewares/Third_Party/RealThread_RTOS_RT-Thread/src/timer.c **** 
 274:Middlewares/Third_Party/RealThread_RTOS_RT-Thread/src/timer.c ****     /* disable interrupt */
 275:Middlewares/Third_Party/RealThread_RTOS_RT-Thread/src/timer.c ****     level = rt_hw_interrupt_disable();
 355              		.loc 1 275 0
 356 0004 FFF7FEFF 		bl	rt_hw_interrupt_disable
 357              	.LVL37:
 358              	.LBB47:
 359              	.LBB48:
 125:Middlewares/Third_Party/RealThread_RTOS_RT-Thread/src/timer.c ****     {
 360              		.loc 1 125 0
 361 0008 0022     		movs	r2, #0
 362              	.LVL38:
 363              	.L19:
 364 000a 002A     		cmp	r2, #0
 365 000c 06DD     		ble	.L20
 366              	.LVL39:
ARM GAS  C:\Users\chuti\AppData\Local\Temp\cco5XJIB.s 			page 14


 367              	.LBE48:
 368              	.LBE47:
 276:Middlewares/Third_Party/RealThread_RTOS_RT-Thread/src/timer.c **** 
 277:Middlewares/Third_Party/RealThread_RTOS_RT-Thread/src/timer.c ****     _rt_timer_remove(timer);
 278:Middlewares/Third_Party/RealThread_RTOS_RT-Thread/src/timer.c **** 
 279:Middlewares/Third_Party/RealThread_RTOS_RT-Thread/src/timer.c ****     /* enable interrupt */
 280:Middlewares/Third_Party/RealThread_RTOS_RT-Thread/src/timer.c ****     rt_hw_interrupt_enable(level);
 369              		.loc 1 280 0
 370 000e FFF7FEFF 		bl	rt_hw_interrupt_enable
 371              	.LVL40:
 281:Middlewares/Third_Party/RealThread_RTOS_RT-Thread/src/timer.c **** 
 282:Middlewares/Third_Party/RealThread_RTOS_RT-Thread/src/timer.c ****     rt_object_delete((rt_object_t)timer);
 372              		.loc 1 282 0
 373 0012 2046     		mov	r0, r4
 374 0014 FFF7FEFF 		bl	rt_object_delete
 375              	.LVL41:
 283:Middlewares/Third_Party/RealThread_RTOS_RT-Thread/src/timer.c **** 
 284:Middlewares/Third_Party/RealThread_RTOS_RT-Thread/src/timer.c ****     return RT_EOK;
 285:Middlewares/Third_Party/RealThread_RTOS_RT-Thread/src/timer.c **** }
 376              		.loc 1 285 0
 377 0018 0020     		movs	r0, #0
 378 001a 70BD     		pop	{r4, r5, r6, pc}
 379              	.LVL42:
 380              	.L20:
 381              	.LBB52:
 382              	.LBB51:
 127:Middlewares/Third_Party/RealThread_RTOS_RT-Thread/src/timer.c ****     }
 383              		.loc 1 127 0
 384 001c 931C     		adds	r3, r2, #2
 385 001e 04EBC303 		add	r3, r4, r3, lsl #3
 386 0022 191D     		adds	r1, r3, #4
 387              	.LVL43:
 388              	.LBB49:
 389              	.LBB50:
  88:Middlewares/Third_Party/RealThread_RTOS_RT-Thread/include/rtservice.h ****     n->prev->next = n->next;
 390              		.loc 2 88 0
 391 0024 5D68     		ldr	r5, [r3, #4]
 392 0026 9E68     		ldr	r6, [r3, #8]
 393 0028 6E60     		str	r6, [r5, #4]
  89:Middlewares/Third_Party/RealThread_RTOS_RT-Thread/include/rtservice.h **** 
 394              		.loc 2 89 0
 395 002a 9D68     		ldr	r5, [r3, #8]
 396 002c 5E68     		ldr	r6, [r3, #4]
 397 002e 2E60     		str	r6, [r5]
  91:Middlewares/Third_Party/RealThread_RTOS_RT-Thread/include/rtservice.h **** }
 398              		.loc 2 91 0
 399 0030 9960     		str	r1, [r3, #8]
 400 0032 5960     		str	r1, [r3, #4]
 401              	.LVL44:
 402              	.LBE50:
 403              	.LBE49:
 125:Middlewares/Third_Party/RealThread_RTOS_RT-Thread/src/timer.c ****     {
 404              		.loc 1 125 0
 405 0034 0132     		adds	r2, r2, #1
 406              	.LVL45:
 407 0036 E8E7     		b	.L19
 408              	.LBE51:
ARM GAS  C:\Users\chuti\AppData\Local\Temp\cco5XJIB.s 			page 15


 409              	.LBE52:
 410              		.cfi_endproc
 411              	.LFE21:
 413              		.section	.text.rt_timer_start,"ax",%progbits
 414              		.align	1
 415              		.global	rt_timer_start
 416              		.syntax unified
 417              		.thumb
 418              		.thumb_func
 419              		.fpu fpv4-sp-d16
 421              	rt_timer_start:
 422              	.LFB22:
 286:Middlewares/Third_Party/RealThread_RTOS_RT-Thread/src/timer.c **** RTM_EXPORT(rt_timer_delete);
 287:Middlewares/Third_Party/RealThread_RTOS_RT-Thread/src/timer.c **** #endif
 288:Middlewares/Third_Party/RealThread_RTOS_RT-Thread/src/timer.c **** 
 289:Middlewares/Third_Party/RealThread_RTOS_RT-Thread/src/timer.c **** /**
 290:Middlewares/Third_Party/RealThread_RTOS_RT-Thread/src/timer.c ****  * This function will start the timer
 291:Middlewares/Third_Party/RealThread_RTOS_RT-Thread/src/timer.c ****  *
 292:Middlewares/Third_Party/RealThread_RTOS_RT-Thread/src/timer.c ****  * @param timer the timer to be started
 293:Middlewares/Third_Party/RealThread_RTOS_RT-Thread/src/timer.c ****  *
 294:Middlewares/Third_Party/RealThread_RTOS_RT-Thread/src/timer.c ****  * @return the operation status, RT_EOK on OK, -RT_ERROR on error
 295:Middlewares/Third_Party/RealThread_RTOS_RT-Thread/src/timer.c ****  */
 296:Middlewares/Third_Party/RealThread_RTOS_RT-Thread/src/timer.c **** rt_err_t rt_timer_start(rt_timer_t timer)
 297:Middlewares/Third_Party/RealThread_RTOS_RT-Thread/src/timer.c **** {
 423              		.loc 1 297 0
 424              		.cfi_startproc
 425              		@ args = 0, pretend = 0, frame = 8
 426              		@ frame_needed = 0, uses_anonymous_args = 0
 427              	.LVL46:
 428 0000 70B5     		push	{r4, r5, r6, lr}
 429              	.LCFI12:
 430              		.cfi_def_cfa_offset 16
 431              		.cfi_offset 4, -16
 432              		.cfi_offset 5, -12
 433              		.cfi_offset 6, -8
 434              		.cfi_offset 14, -4
 435 0002 82B0     		sub	sp, sp, #8
 436              	.LCFI13:
 437              		.cfi_def_cfa_offset 24
 438 0004 0446     		mov	r4, r0
 298:Middlewares/Third_Party/RealThread_RTOS_RT-Thread/src/timer.c ****     unsigned int row_lvl;
 299:Middlewares/Third_Party/RealThread_RTOS_RT-Thread/src/timer.c ****     rt_list_t *timer_list;
 300:Middlewares/Third_Party/RealThread_RTOS_RT-Thread/src/timer.c ****     register rt_base_t level;
 301:Middlewares/Third_Party/RealThread_RTOS_RT-Thread/src/timer.c ****     rt_list_t *row_head[RT_TIMER_SKIP_LIST_LEVEL];
 302:Middlewares/Third_Party/RealThread_RTOS_RT-Thread/src/timer.c ****     unsigned int tst_nr;
 303:Middlewares/Third_Party/RealThread_RTOS_RT-Thread/src/timer.c ****     static unsigned int random_nr;
 304:Middlewares/Third_Party/RealThread_RTOS_RT-Thread/src/timer.c **** 
 305:Middlewares/Third_Party/RealThread_RTOS_RT-Thread/src/timer.c ****     /* timer check */
 306:Middlewares/Third_Party/RealThread_RTOS_RT-Thread/src/timer.c ****     RT_ASSERT(timer != RT_NULL);
 307:Middlewares/Third_Party/RealThread_RTOS_RT-Thread/src/timer.c ****     RT_ASSERT(rt_object_get_type(&timer->parent) == RT_Object_Class_Timer);
 308:Middlewares/Third_Party/RealThread_RTOS_RT-Thread/src/timer.c **** 
 309:Middlewares/Third_Party/RealThread_RTOS_RT-Thread/src/timer.c ****     /* stop timer firstly */
 310:Middlewares/Third_Party/RealThread_RTOS_RT-Thread/src/timer.c ****     level = rt_hw_interrupt_disable();
 439              		.loc 1 310 0
 440 0006 FFF7FEFF 		bl	rt_hw_interrupt_disable
 441              	.LVL47:
 442              	.LBB53:
ARM GAS  C:\Users\chuti\AppData\Local\Temp\cco5XJIB.s 			page 16


 443              	.LBB54:
 125:Middlewares/Third_Party/RealThread_RTOS_RT-Thread/src/timer.c ****     {
 444              		.loc 1 125 0
 445 000a 0022     		movs	r2, #0
 446              	.LVL48:
 447              	.L23:
 448 000c 002A     		cmp	r2, #0
 449 000e 26DD     		ble	.L24
 450              	.LVL49:
 451              	.LBE54:
 452              	.LBE53:
 311:Middlewares/Third_Party/RealThread_RTOS_RT-Thread/src/timer.c ****     /* remove timer from list */
 312:Middlewares/Third_Party/RealThread_RTOS_RT-Thread/src/timer.c ****     _rt_timer_remove(timer);
 313:Middlewares/Third_Party/RealThread_RTOS_RT-Thread/src/timer.c ****     /* change status of timer */
 314:Middlewares/Third_Party/RealThread_RTOS_RT-Thread/src/timer.c ****     timer->parent.flag &= ~RT_TIMER_FLAG_ACTIVATED;
 453              		.loc 1 314 0
 454 0010 637A     		ldrb	r3, [r4, #9]	@ zero_extendqisi2
 455 0012 23F00103 		bic	r3, r3, #1
 456 0016 6372     		strb	r3, [r4, #9]
 315:Middlewares/Third_Party/RealThread_RTOS_RT-Thread/src/timer.c ****     rt_hw_interrupt_enable(level);
 457              		.loc 1 315 0
 458 0018 FFF7FEFF 		bl	rt_hw_interrupt_enable
 459              	.LVL50:
 316:Middlewares/Third_Party/RealThread_RTOS_RT-Thread/src/timer.c **** 
 317:Middlewares/Third_Party/RealThread_RTOS_RT-Thread/src/timer.c ****     RT_OBJECT_HOOK_CALL(rt_object_take_hook, (&(timer->parent)));
 318:Middlewares/Third_Party/RealThread_RTOS_RT-Thread/src/timer.c **** 
 319:Middlewares/Third_Party/RealThread_RTOS_RT-Thread/src/timer.c ****     /*
 320:Middlewares/Third_Party/RealThread_RTOS_RT-Thread/src/timer.c ****      * get timeout tick,
 321:Middlewares/Third_Party/RealThread_RTOS_RT-Thread/src/timer.c ****      * the max timeout tick shall not great than RT_TICK_MAX/2
 322:Middlewares/Third_Party/RealThread_RTOS_RT-Thread/src/timer.c ****      */
 323:Middlewares/Third_Party/RealThread_RTOS_RT-Thread/src/timer.c ****     RT_ASSERT(timer->init_tick < RT_TICK_MAX / 2);
 324:Middlewares/Third_Party/RealThread_RTOS_RT-Thread/src/timer.c ****     timer->timeout_tick = rt_tick_get() + timer->init_tick;
 460              		.loc 1 324 0
 461 001c FFF7FEFF 		bl	rt_tick_get
 462              	.LVL51:
 463 0020 636A     		ldr	r3, [r4, #36]
 464 0022 1844     		add	r0, r0, r3
 465 0024 A062     		str	r0, [r4, #40]
 325:Middlewares/Third_Party/RealThread_RTOS_RT-Thread/src/timer.c **** 
 326:Middlewares/Third_Party/RealThread_RTOS_RT-Thread/src/timer.c ****     /* disable interrupt */
 327:Middlewares/Third_Party/RealThread_RTOS_RT-Thread/src/timer.c ****     level = rt_hw_interrupt_disable();
 466              		.loc 1 327 0
 467 0026 FFF7FEFF 		bl	rt_hw_interrupt_disable
 468              	.LVL52:
 328:Middlewares/Third_Party/RealThread_RTOS_RT-Thread/src/timer.c **** 
 329:Middlewares/Third_Party/RealThread_RTOS_RT-Thread/src/timer.c **** #ifdef RT_USING_TIMER_SOFT
 330:Middlewares/Third_Party/RealThread_RTOS_RT-Thread/src/timer.c ****     if (timer->parent.flag & RT_TIMER_FLAG_SOFT_TIMER)
 331:Middlewares/Third_Party/RealThread_RTOS_RT-Thread/src/timer.c ****     {
 332:Middlewares/Third_Party/RealThread_RTOS_RT-Thread/src/timer.c ****         /* insert timer to soft timer list */
 333:Middlewares/Third_Party/RealThread_RTOS_RT-Thread/src/timer.c ****         timer_list = rt_soft_timer_list;
 334:Middlewares/Third_Party/RealThread_RTOS_RT-Thread/src/timer.c ****     }
 335:Middlewares/Third_Party/RealThread_RTOS_RT-Thread/src/timer.c ****     else
 336:Middlewares/Third_Party/RealThread_RTOS_RT-Thread/src/timer.c **** #endif
 337:Middlewares/Third_Party/RealThread_RTOS_RT-Thread/src/timer.c ****     {
 338:Middlewares/Third_Party/RealThread_RTOS_RT-Thread/src/timer.c ****         /* insert timer to system timer list */
 339:Middlewares/Third_Party/RealThread_RTOS_RT-Thread/src/timer.c ****         timer_list = rt_timer_list;
 340:Middlewares/Third_Party/RealThread_RTOS_RT-Thread/src/timer.c ****     }
ARM GAS  C:\Users\chuti\AppData\Local\Temp\cco5XJIB.s 			page 17


 341:Middlewares/Third_Party/RealThread_RTOS_RT-Thread/src/timer.c **** 
 342:Middlewares/Third_Party/RealThread_RTOS_RT-Thread/src/timer.c ****     row_head[0]  = &timer_list[0];
 469              		.loc 1 342 0
 470 002a 224B     		ldr	r3, .L31
 471 002c 0193     		str	r3, [sp, #4]
 472              	.LVL53:
 343:Middlewares/Third_Party/RealThread_RTOS_RT-Thread/src/timer.c ****     for (row_lvl = 0; row_lvl < RT_TIMER_SKIP_LIST_LEVEL; row_lvl++)
 473              		.loc 1 343 0
 474 002e 0021     		movs	r1, #0
 475              	.LVL54:
 476              	.L25:
 477              		.loc 1 343 0 is_stmt 0 discriminator 1
 478 0030 41B3     		cbz	r1, .L29
 344:Middlewares/Third_Party/RealThread_RTOS_RT-Thread/src/timer.c ****     {
 345:Middlewares/Third_Party/RealThread_RTOS_RT-Thread/src/timer.c ****         for (; row_head[row_lvl] != timer_list[row_lvl].prev;
 346:Middlewares/Third_Party/RealThread_RTOS_RT-Thread/src/timer.c ****              row_head[row_lvl]  = row_head[row_lvl]->next)
 347:Middlewares/Third_Party/RealThread_RTOS_RT-Thread/src/timer.c ****         {
 348:Middlewares/Third_Party/RealThread_RTOS_RT-Thread/src/timer.c ****             struct rt_timer *t;
 349:Middlewares/Third_Party/RealThread_RTOS_RT-Thread/src/timer.c ****             rt_list_t *p = row_head[row_lvl]->next;
 350:Middlewares/Third_Party/RealThread_RTOS_RT-Thread/src/timer.c **** 
 351:Middlewares/Third_Party/RealThread_RTOS_RT-Thread/src/timer.c ****             /* fix up the entry pointer */
 352:Middlewares/Third_Party/RealThread_RTOS_RT-Thread/src/timer.c ****             t = rt_list_entry(p, struct rt_timer, row[row_lvl]);
 353:Middlewares/Third_Party/RealThread_RTOS_RT-Thread/src/timer.c **** 
 354:Middlewares/Third_Party/RealThread_RTOS_RT-Thread/src/timer.c ****             /* If we have two timers that timeout at the same time, it's
 355:Middlewares/Third_Party/RealThread_RTOS_RT-Thread/src/timer.c ****              * preferred that the timer inserted early get called early.
 356:Middlewares/Third_Party/RealThread_RTOS_RT-Thread/src/timer.c ****              * So insert the new timer to the end the the some-timeout timer
 357:Middlewares/Third_Party/RealThread_RTOS_RT-Thread/src/timer.c ****              * list.
 358:Middlewares/Third_Party/RealThread_RTOS_RT-Thread/src/timer.c ****              */
 359:Middlewares/Third_Party/RealThread_RTOS_RT-Thread/src/timer.c ****             if ((t->timeout_tick - timer->timeout_tick) == 0)
 360:Middlewares/Third_Party/RealThread_RTOS_RT-Thread/src/timer.c ****             {
 361:Middlewares/Third_Party/RealThread_RTOS_RT-Thread/src/timer.c ****                 continue;
 362:Middlewares/Third_Party/RealThread_RTOS_RT-Thread/src/timer.c ****             }
 363:Middlewares/Third_Party/RealThread_RTOS_RT-Thread/src/timer.c ****             else if ((t->timeout_tick - timer->timeout_tick) < RT_TICK_MAX / 2)
 364:Middlewares/Third_Party/RealThread_RTOS_RT-Thread/src/timer.c ****             {
 365:Middlewares/Third_Party/RealThread_RTOS_RT-Thread/src/timer.c ****                 break;
 366:Middlewares/Third_Party/RealThread_RTOS_RT-Thread/src/timer.c ****             }
 367:Middlewares/Third_Party/RealThread_RTOS_RT-Thread/src/timer.c ****         }
 368:Middlewares/Third_Party/RealThread_RTOS_RT-Thread/src/timer.c ****         if (row_lvl != RT_TIMER_SKIP_LIST_LEVEL - 1)
 369:Middlewares/Third_Party/RealThread_RTOS_RT-Thread/src/timer.c ****             row_head[row_lvl + 1] = row_head[row_lvl] + 1;
 370:Middlewares/Third_Party/RealThread_RTOS_RT-Thread/src/timer.c ****     }
 371:Middlewares/Third_Party/RealThread_RTOS_RT-Thread/src/timer.c **** 
 372:Middlewares/Third_Party/RealThread_RTOS_RT-Thread/src/timer.c ****     /* Interestingly, this super simple timer insert counter works very very
 373:Middlewares/Third_Party/RealThread_RTOS_RT-Thread/src/timer.c ****      * well on distributing the list height uniformly. By means of "very very
 374:Middlewares/Third_Party/RealThread_RTOS_RT-Thread/src/timer.c ****      * well", I mean it beats the randomness of timer->timeout_tick very easily
 375:Middlewares/Third_Party/RealThread_RTOS_RT-Thread/src/timer.c ****      * (actually, the timeout_tick is not random and easy to be attacked). */
 376:Middlewares/Third_Party/RealThread_RTOS_RT-Thread/src/timer.c ****     random_nr++;
 479              		.loc 1 376 0 is_stmt 1
 480 0032 214A     		ldr	r2, .L31+4
 481 0034 1368     		ldr	r3, [r2]
 482 0036 0133     		adds	r3, r3, #1
 483 0038 1360     		str	r3, [r2]
 484              	.LVL55:
 377:Middlewares/Third_Party/RealThread_RTOS_RT-Thread/src/timer.c ****     tst_nr = random_nr;
 378:Middlewares/Third_Party/RealThread_RTOS_RT-Thread/src/timer.c **** 
 379:Middlewares/Third_Party/RealThread_RTOS_RT-Thread/src/timer.c ****     rt_list_insert_after(row_head[RT_TIMER_SKIP_LIST_LEVEL - 1],
 485              		.loc 1 379 0
 486 003a 019B     		ldr	r3, [sp, #4]
ARM GAS  C:\Users\chuti\AppData\Local\Temp\cco5XJIB.s 			page 18


 487              	.LVL56:
 488 003c 04F11402 		add	r2, r4, #20
 489              	.LVL57:
 490              	.LBB58:
 491              	.LBB59:
  60:Middlewares/Third_Party/RealThread_RTOS_RT-Thread/include/rtservice.h ****     n->next = l->next;
 492              		.loc 2 60 0
 493 0040 1968     		ldr	r1, [r3]
 494              	.LVL58:
 495 0042 4A60     		str	r2, [r1, #4]
  61:Middlewares/Third_Party/RealThread_RTOS_RT-Thread/include/rtservice.h **** 
 496              		.loc 2 61 0
 497 0044 1968     		ldr	r1, [r3]
 498 0046 6161     		str	r1, [r4, #20]
  63:Middlewares/Third_Party/RealThread_RTOS_RT-Thread/include/rtservice.h ****     n->prev = l;
 499              		.loc 2 63 0
 500 0048 1A60     		str	r2, [r3]
  64:Middlewares/Third_Party/RealThread_RTOS_RT-Thread/include/rtservice.h **** }
 501              		.loc 2 64 0
 502 004a A361     		str	r3, [r4, #24]
 503              	.LVL59:
 504              	.LBE59:
 505              	.LBE58:
 380:Middlewares/Third_Party/RealThread_RTOS_RT-Thread/src/timer.c ****                          &(timer->row[RT_TIMER_SKIP_LIST_LEVEL - 1]));
 381:Middlewares/Third_Party/RealThread_RTOS_RT-Thread/src/timer.c ****     for (row_lvl = 2; row_lvl <= RT_TIMER_SKIP_LIST_LEVEL; row_lvl++)
 382:Middlewares/Third_Party/RealThread_RTOS_RT-Thread/src/timer.c ****     {
 383:Middlewares/Third_Party/RealThread_RTOS_RT-Thread/src/timer.c ****         if (!(tst_nr & RT_TIMER_SKIP_LIST_MASK))
 384:Middlewares/Third_Party/RealThread_RTOS_RT-Thread/src/timer.c ****             rt_list_insert_after(row_head[RT_TIMER_SKIP_LIST_LEVEL - row_lvl],
 385:Middlewares/Third_Party/RealThread_RTOS_RT-Thread/src/timer.c ****                                  &(timer->row[RT_TIMER_SKIP_LIST_LEVEL - row_lvl]));
 386:Middlewares/Third_Party/RealThread_RTOS_RT-Thread/src/timer.c ****         else
 387:Middlewares/Third_Party/RealThread_RTOS_RT-Thread/src/timer.c ****             break;
 388:Middlewares/Third_Party/RealThread_RTOS_RT-Thread/src/timer.c ****         /* Shift over the bits we have tested. Works well with 1 bit and 2
 389:Middlewares/Third_Party/RealThread_RTOS_RT-Thread/src/timer.c ****          * bits. */
 390:Middlewares/Third_Party/RealThread_RTOS_RT-Thread/src/timer.c ****         tst_nr >>= (RT_TIMER_SKIP_LIST_MASK + 1) >> 1;
 391:Middlewares/Third_Party/RealThread_RTOS_RT-Thread/src/timer.c ****     }
 392:Middlewares/Third_Party/RealThread_RTOS_RT-Thread/src/timer.c **** 
 393:Middlewares/Third_Party/RealThread_RTOS_RT-Thread/src/timer.c ****     timer->parent.flag |= RT_TIMER_FLAG_ACTIVATED;
 506              		.loc 1 393 0
 507 004c 637A     		ldrb	r3, [r4, #9]	@ zero_extendqisi2
 508 004e 43F00103 		orr	r3, r3, #1
 509 0052 6372     		strb	r3, [r4, #9]
 394:Middlewares/Third_Party/RealThread_RTOS_RT-Thread/src/timer.c **** 
 395:Middlewares/Third_Party/RealThread_RTOS_RT-Thread/src/timer.c ****     /* enable interrupt */
 396:Middlewares/Third_Party/RealThread_RTOS_RT-Thread/src/timer.c ****     rt_hw_interrupt_enable(level);
 510              		.loc 1 396 0
 511 0054 FFF7FEFF 		bl	rt_hw_interrupt_enable
 512              	.LVL60:
 397:Middlewares/Third_Party/RealThread_RTOS_RT-Thread/src/timer.c **** 
 398:Middlewares/Third_Party/RealThread_RTOS_RT-Thread/src/timer.c **** #ifdef RT_USING_TIMER_SOFT
 399:Middlewares/Third_Party/RealThread_RTOS_RT-Thread/src/timer.c ****     if (timer->parent.flag & RT_TIMER_FLAG_SOFT_TIMER)
 400:Middlewares/Third_Party/RealThread_RTOS_RT-Thread/src/timer.c ****     {
 401:Middlewares/Third_Party/RealThread_RTOS_RT-Thread/src/timer.c ****         /* check whether timer thread is ready */
 402:Middlewares/Third_Party/RealThread_RTOS_RT-Thread/src/timer.c ****         if ((timer_thread.stat & RT_THREAD_STAT_MASK) != RT_THREAD_READY)
 403:Middlewares/Third_Party/RealThread_RTOS_RT-Thread/src/timer.c ****         {
 404:Middlewares/Third_Party/RealThread_RTOS_RT-Thread/src/timer.c ****             /* resume timer thread to check soft timer */
 405:Middlewares/Third_Party/RealThread_RTOS_RT-Thread/src/timer.c ****             rt_thread_resume(&timer_thread);
 406:Middlewares/Third_Party/RealThread_RTOS_RT-Thread/src/timer.c ****             rt_schedule();
ARM GAS  C:\Users\chuti\AppData\Local\Temp\cco5XJIB.s 			page 19


 407:Middlewares/Third_Party/RealThread_RTOS_RT-Thread/src/timer.c ****         }
 408:Middlewares/Third_Party/RealThread_RTOS_RT-Thread/src/timer.c ****     }
 409:Middlewares/Third_Party/RealThread_RTOS_RT-Thread/src/timer.c **** #endif
 410:Middlewares/Third_Party/RealThread_RTOS_RT-Thread/src/timer.c **** 
 411:Middlewares/Third_Party/RealThread_RTOS_RT-Thread/src/timer.c ****     return RT_EOK;
 412:Middlewares/Third_Party/RealThread_RTOS_RT-Thread/src/timer.c **** }
 513              		.loc 1 412 0
 514 0058 0020     		movs	r0, #0
 515 005a 02B0     		add	sp, sp, #8
 516              	.LCFI14:
 517              		.cfi_remember_state
 518              		.cfi_def_cfa_offset 16
 519              		@ sp needed
 520 005c 70BD     		pop	{r4, r5, r6, pc}
 521              	.LVL61:
 522              	.L24:
 523              	.LCFI15:
 524              		.cfi_restore_state
 525              	.LBB60:
 526              	.LBB57:
 127:Middlewares/Third_Party/RealThread_RTOS_RT-Thread/src/timer.c ****     }
 527              		.loc 1 127 0
 528 005e 931C     		adds	r3, r2, #2
 529 0060 04EBC303 		add	r3, r4, r3, lsl #3
 530 0064 191D     		adds	r1, r3, #4
 531              	.LVL62:
 532              	.LBB55:
 533              	.LBB56:
  88:Middlewares/Third_Party/RealThread_RTOS_RT-Thread/include/rtservice.h ****     n->prev->next = n->next;
 534              		.loc 2 88 0
 535 0066 5D68     		ldr	r5, [r3, #4]
 536 0068 9E68     		ldr	r6, [r3, #8]
 537 006a 6E60     		str	r6, [r5, #4]
  89:Middlewares/Third_Party/RealThread_RTOS_RT-Thread/include/rtservice.h **** 
 538              		.loc 2 89 0
 539 006c 9D68     		ldr	r5, [r3, #8]
 540 006e 5E68     		ldr	r6, [r3, #4]
 541 0070 2E60     		str	r6, [r5]
  91:Middlewares/Third_Party/RealThread_RTOS_RT-Thread/include/rtservice.h **** }
 542              		.loc 2 91 0
 543 0072 9960     		str	r1, [r3, #8]
 544 0074 5960     		str	r1, [r3, #4]
 545              	.LVL63:
 546              	.LBE56:
 547              	.LBE55:
 125:Middlewares/Third_Party/RealThread_RTOS_RT-Thread/src/timer.c ****     {
 548              		.loc 1 125 0
 549 0076 0132     		adds	r2, r2, #1
 550              	.LVL64:
 551 0078 C8E7     		b	.L23
 552              	.LVL65:
 553              	.L26:
 554              	.LBE57:
 555              	.LBE60:
 346:Middlewares/Third_Party/RealThread_RTOS_RT-Thread/src/timer.c ****         {
 556              		.loc 1 346 0
 557 007a 02AB     		add	r3, sp, #8
ARM GAS  C:\Users\chuti\AppData\Local\Temp\cco5XJIB.s 			page 20


 558 007c 03EB8103 		add	r3, r3, r1, lsl #2
 559 0080 43F8042C 		str	r2, [r3, #-4]
 560              	.LVL66:
 561              	.L29:
 345:Middlewares/Third_Party/RealThread_RTOS_RT-Thread/src/timer.c ****              row_head[row_lvl]  = row_head[row_lvl]->next)
 562              		.loc 1 345 0
 563 0084 02AB     		add	r3, sp, #8
 564 0086 03EB8103 		add	r3, r3, r1, lsl #2
 565 008a 53F8045C 		ldr	r5, [r3, #-4]
 566 008e CB00     		lsls	r3, r1, #3
 567 0090 084A     		ldr	r2, .L31
 568 0092 1A44     		add	r2, r2, r3
 569 0094 5268     		ldr	r2, [r2, #4]
 570 0096 9542     		cmp	r5, r2
 571 0098 0AD0     		beq	.L27
 572              	.LBB61:
 349:Middlewares/Third_Party/RealThread_RTOS_RT-Thread/src/timer.c **** 
 573              		.loc 1 349 0
 574 009a 2A68     		ldr	r2, [r5]
 575              	.LVL67:
 352:Middlewares/Third_Party/RealThread_RTOS_RT-Thread/src/timer.c **** 
 576              		.loc 1 352 0
 577 009c 1433     		adds	r3, r3, #20
 578 009e D31A     		subs	r3, r2, r3
 579              	.LVL68:
 359:Middlewares/Third_Party/RealThread_RTOS_RT-Thread/src/timer.c ****             {
 580              		.loc 1 359 0
 581 00a0 9B6A     		ldr	r3, [r3, #40]
 582              	.LVL69:
 583 00a2 A56A     		ldr	r5, [r4, #40]
 584 00a4 AB42     		cmp	r3, r5
 585 00a6 E8D0     		beq	.L26
 363:Middlewares/Third_Party/RealThread_RTOS_RT-Thread/src/timer.c ****             {
 586              		.loc 1 363 0
 587 00a8 5B1B     		subs	r3, r3, r5
 588 00aa 044D     		ldr	r5, .L31+8
 589 00ac AB42     		cmp	r3, r5
 590 00ae E4D8     		bhi	.L26
 591              	.LVL70:
 592              	.L27:
 593              	.LBE61:
 343:Middlewares/Third_Party/RealThread_RTOS_RT-Thread/src/timer.c ****     {
 594              		.loc 1 343 0 discriminator 2
 595 00b0 0131     		adds	r1, r1, #1
 596              	.LVL71:
 597 00b2 BDE7     		b	.L25
 598              	.L32:
 599              		.align	2
 600              	.L31:
 601 00b4 00000000 		.word	.LANCHOR0
 602 00b8 00000000 		.word	.LANCHOR1
 603 00bc FEFFFF7F 		.word	2147483646
 604              		.cfi_endproc
 605              	.LFE22:
 607              		.section	.text.rt_timer_stop,"ax",%progbits
 608              		.align	1
 609              		.global	rt_timer_stop
ARM GAS  C:\Users\chuti\AppData\Local\Temp\cco5XJIB.s 			page 21


 610              		.syntax unified
 611              		.thumb
 612              		.thumb_func
 613              		.fpu fpv4-sp-d16
 615              	rt_timer_stop:
 616              	.LFB23:
 413:Middlewares/Third_Party/RealThread_RTOS_RT-Thread/src/timer.c **** RTM_EXPORT(rt_timer_start);
 414:Middlewares/Third_Party/RealThread_RTOS_RT-Thread/src/timer.c **** 
 415:Middlewares/Third_Party/RealThread_RTOS_RT-Thread/src/timer.c **** /**
 416:Middlewares/Third_Party/RealThread_RTOS_RT-Thread/src/timer.c ****  * This function will stop the timer
 417:Middlewares/Third_Party/RealThread_RTOS_RT-Thread/src/timer.c ****  *
 418:Middlewares/Third_Party/RealThread_RTOS_RT-Thread/src/timer.c ****  * @param timer the timer to be stopped
 419:Middlewares/Third_Party/RealThread_RTOS_RT-Thread/src/timer.c ****  *
 420:Middlewares/Third_Party/RealThread_RTOS_RT-Thread/src/timer.c ****  * @return the operation status, RT_EOK on OK, -RT_ERROR on error
 421:Middlewares/Third_Party/RealThread_RTOS_RT-Thread/src/timer.c ****  */
 422:Middlewares/Third_Party/RealThread_RTOS_RT-Thread/src/timer.c **** rt_err_t rt_timer_stop(rt_timer_t timer)
 423:Middlewares/Third_Party/RealThread_RTOS_RT-Thread/src/timer.c **** {
 617              		.loc 1 423 0
 618              		.cfi_startproc
 619              		@ args = 0, pretend = 0, frame = 0
 620              		@ frame_needed = 0, uses_anonymous_args = 0
 621              	.LVL72:
 424:Middlewares/Third_Party/RealThread_RTOS_RT-Thread/src/timer.c ****     register rt_base_t level;
 425:Middlewares/Third_Party/RealThread_RTOS_RT-Thread/src/timer.c **** 
 426:Middlewares/Third_Party/RealThread_RTOS_RT-Thread/src/timer.c ****     /* timer check */
 427:Middlewares/Third_Party/RealThread_RTOS_RT-Thread/src/timer.c ****     RT_ASSERT(timer != RT_NULL);
 428:Middlewares/Third_Party/RealThread_RTOS_RT-Thread/src/timer.c ****     RT_ASSERT(rt_object_get_type(&timer->parent) == RT_Object_Class_Timer);
 429:Middlewares/Third_Party/RealThread_RTOS_RT-Thread/src/timer.c **** 
 430:Middlewares/Third_Party/RealThread_RTOS_RT-Thread/src/timer.c ****     if (!(timer->parent.flag & RT_TIMER_FLAG_ACTIVATED))
 622              		.loc 1 430 0
 623 0000 437A     		ldrb	r3, [r0, #9]	@ zero_extendqisi2
 624 0002 13F0010F 		tst	r3, #1
 625 0006 1CD0     		beq	.L37
 423:Middlewares/Third_Party/RealThread_RTOS_RT-Thread/src/timer.c ****     register rt_base_t level;
 626              		.loc 1 423 0
 627 0008 70B5     		push	{r4, r5, r6, lr}
 628              	.LCFI16:
 629              		.cfi_def_cfa_offset 16
 630              		.cfi_offset 4, -16
 631              		.cfi_offset 5, -12
 632              		.cfi_offset 6, -8
 633              		.cfi_offset 14, -4
 634 000a 0446     		mov	r4, r0
 431:Middlewares/Third_Party/RealThread_RTOS_RT-Thread/src/timer.c ****         return -RT_ERROR;
 432:Middlewares/Third_Party/RealThread_RTOS_RT-Thread/src/timer.c **** 
 433:Middlewares/Third_Party/RealThread_RTOS_RT-Thread/src/timer.c ****     RT_OBJECT_HOOK_CALL(rt_object_put_hook, (&(timer->parent)));
 434:Middlewares/Third_Party/RealThread_RTOS_RT-Thread/src/timer.c **** 
 435:Middlewares/Third_Party/RealThread_RTOS_RT-Thread/src/timer.c ****     /* disable interrupt */
 436:Middlewares/Third_Party/RealThread_RTOS_RT-Thread/src/timer.c ****     level = rt_hw_interrupt_disable();
 635              		.loc 1 436 0
 636 000c FFF7FEFF 		bl	rt_hw_interrupt_disable
 637              	.LVL73:
 638              	.LBB62:
 639              	.LBB63:
 125:Middlewares/Third_Party/RealThread_RTOS_RT-Thread/src/timer.c ****     {
 640              		.loc 1 125 0
 641 0010 0022     		movs	r2, #0
ARM GAS  C:\Users\chuti\AppData\Local\Temp\cco5XJIB.s 			page 22


 642              	.LVL74:
 643              	.L35:
 644 0012 002A     		cmp	r2, #0
 645 0014 07DD     		ble	.L36
 646              	.LVL75:
 647              	.LBE63:
 648              	.LBE62:
 437:Middlewares/Third_Party/RealThread_RTOS_RT-Thread/src/timer.c **** 
 438:Middlewares/Third_Party/RealThread_RTOS_RT-Thread/src/timer.c ****     _rt_timer_remove(timer);
 439:Middlewares/Third_Party/RealThread_RTOS_RT-Thread/src/timer.c **** 
 440:Middlewares/Third_Party/RealThread_RTOS_RT-Thread/src/timer.c ****     /* enable interrupt */
 441:Middlewares/Third_Party/RealThread_RTOS_RT-Thread/src/timer.c ****     rt_hw_interrupt_enable(level);
 649              		.loc 1 441 0
 650 0016 FFF7FEFF 		bl	rt_hw_interrupt_enable
 651              	.LVL76:
 442:Middlewares/Third_Party/RealThread_RTOS_RT-Thread/src/timer.c **** 
 443:Middlewares/Third_Party/RealThread_RTOS_RT-Thread/src/timer.c ****     /* change stat */
 444:Middlewares/Third_Party/RealThread_RTOS_RT-Thread/src/timer.c ****     timer->parent.flag &= ~RT_TIMER_FLAG_ACTIVATED;
 652              		.loc 1 444 0
 653 001a 637A     		ldrb	r3, [r4, #9]	@ zero_extendqisi2
 654 001c 23F00103 		bic	r3, r3, #1
 655 0020 6372     		strb	r3, [r4, #9]
 445:Middlewares/Third_Party/RealThread_RTOS_RT-Thread/src/timer.c **** 
 446:Middlewares/Third_Party/RealThread_RTOS_RT-Thread/src/timer.c ****     return RT_EOK;
 656              		.loc 1 446 0
 657 0022 0020     		movs	r0, #0
 447:Middlewares/Third_Party/RealThread_RTOS_RT-Thread/src/timer.c **** }
 658              		.loc 1 447 0
 659 0024 70BD     		pop	{r4, r5, r6, pc}
 660              	.LVL77:
 661              	.L36:
 662              	.LBB67:
 663              	.LBB66:
 127:Middlewares/Third_Party/RealThread_RTOS_RT-Thread/src/timer.c ****     }
 664              		.loc 1 127 0
 665 0026 931C     		adds	r3, r2, #2
 666 0028 04EBC303 		add	r3, r4, r3, lsl #3
 667 002c 191D     		adds	r1, r3, #4
 668              	.LVL78:
 669              	.LBB64:
 670              	.LBB65:
  88:Middlewares/Third_Party/RealThread_RTOS_RT-Thread/include/rtservice.h ****     n->prev->next = n->next;
 671              		.loc 2 88 0
 672 002e 5D68     		ldr	r5, [r3, #4]
 673 0030 9E68     		ldr	r6, [r3, #8]
 674 0032 6E60     		str	r6, [r5, #4]
  89:Middlewares/Third_Party/RealThread_RTOS_RT-Thread/include/rtservice.h **** 
 675              		.loc 2 89 0
 676 0034 9D68     		ldr	r5, [r3, #8]
 677 0036 5E68     		ldr	r6, [r3, #4]
 678 0038 2E60     		str	r6, [r5]
  91:Middlewares/Third_Party/RealThread_RTOS_RT-Thread/include/rtservice.h **** }
 679              		.loc 2 91 0
 680 003a 9960     		str	r1, [r3, #8]
 681 003c 5960     		str	r1, [r3, #4]
 682              	.LVL79:
 683              	.LBE65:
ARM GAS  C:\Users\chuti\AppData\Local\Temp\cco5XJIB.s 			page 23


 684              	.LBE64:
 125:Middlewares/Third_Party/RealThread_RTOS_RT-Thread/src/timer.c ****     {
 685              		.loc 1 125 0
 686 003e 0132     		adds	r2, r2, #1
 687              	.LVL80:
 688 0040 E7E7     		b	.L35
 689              	.LVL81:
 690              	.L37:
 691              	.LCFI17:
 692              		.cfi_def_cfa_offset 0
 693              		.cfi_restore 4
 694              		.cfi_restore 5
 695              		.cfi_restore 6
 696              		.cfi_restore 14
 697              	.LBE66:
 698              	.LBE67:
 431:Middlewares/Third_Party/RealThread_RTOS_RT-Thread/src/timer.c **** 
 699              		.loc 1 431 0
 700 0042 4FF0FF30 		mov	r0, #-1
 701              	.LVL82:
 702              		.loc 1 447 0
 703 0046 7047     		bx	lr
 704              		.cfi_endproc
 705              	.LFE23:
 707              		.section	.text.rt_timer_control,"ax",%progbits
 708              		.align	1
 709              		.global	rt_timer_control
 710              		.syntax unified
 711              		.thumb
 712              		.thumb_func
 713              		.fpu fpv4-sp-d16
 715              	rt_timer_control:
 716              	.LFB24:
 448:Middlewares/Third_Party/RealThread_RTOS_RT-Thread/src/timer.c **** RTM_EXPORT(rt_timer_stop);
 449:Middlewares/Third_Party/RealThread_RTOS_RT-Thread/src/timer.c **** 
 450:Middlewares/Third_Party/RealThread_RTOS_RT-Thread/src/timer.c **** /**
 451:Middlewares/Third_Party/RealThread_RTOS_RT-Thread/src/timer.c ****  * This function will get or set some options of the timer
 452:Middlewares/Third_Party/RealThread_RTOS_RT-Thread/src/timer.c ****  *
 453:Middlewares/Third_Party/RealThread_RTOS_RT-Thread/src/timer.c ****  * @param timer the timer to be get or set
 454:Middlewares/Third_Party/RealThread_RTOS_RT-Thread/src/timer.c ****  * @param cmd the control command
 455:Middlewares/Third_Party/RealThread_RTOS_RT-Thread/src/timer.c ****  * @param arg the argument
 456:Middlewares/Third_Party/RealThread_RTOS_RT-Thread/src/timer.c ****  *
 457:Middlewares/Third_Party/RealThread_RTOS_RT-Thread/src/timer.c ****  * @return RT_EOK
 458:Middlewares/Third_Party/RealThread_RTOS_RT-Thread/src/timer.c ****  */
 459:Middlewares/Third_Party/RealThread_RTOS_RT-Thread/src/timer.c **** rt_err_t rt_timer_control(rt_timer_t timer, int cmd, void *arg)
 460:Middlewares/Third_Party/RealThread_RTOS_RT-Thread/src/timer.c **** {
 717              		.loc 1 460 0
 718              		.cfi_startproc
 719              		@ args = 0, pretend = 0, frame = 0
 720              		@ frame_needed = 0, uses_anonymous_args = 0
 721              		@ link register save eliminated.
 722              	.LVL83:
 461:Middlewares/Third_Party/RealThread_RTOS_RT-Thread/src/timer.c ****     /* timer check */
 462:Middlewares/Third_Party/RealThread_RTOS_RT-Thread/src/timer.c ****     RT_ASSERT(timer != RT_NULL);
 463:Middlewares/Third_Party/RealThread_RTOS_RT-Thread/src/timer.c ****     RT_ASSERT(rt_object_get_type(&timer->parent) == RT_Object_Class_Timer);
 464:Middlewares/Third_Party/RealThread_RTOS_RT-Thread/src/timer.c **** 
 465:Middlewares/Third_Party/RealThread_RTOS_RT-Thread/src/timer.c ****     switch (cmd)
ARM GAS  C:\Users\chuti\AppData\Local\Temp\cco5XJIB.s 			page 24


 723              		.loc 1 465 0
 724 0000 0329     		cmp	r1, #3
 725 0002 05D8     		bhi	.L43
 726 0004 DFE801F0 		tbb	[pc, r1]
 727              	.L45:
 728 0008 06       		.byte	(.L44-.L45)/2
 729 0009 02       		.byte	(.L46-.L45)/2
 730 000a 09       		.byte	(.L47-.L45)/2
 731 000b 0E       		.byte	(.L48-.L45)/2
 732              		.p2align 1
 733              	.L46:
 466:Middlewares/Third_Party/RealThread_RTOS_RT-Thread/src/timer.c ****     {
 467:Middlewares/Third_Party/RealThread_RTOS_RT-Thread/src/timer.c ****     case RT_TIMER_CTRL_GET_TIME:
 468:Middlewares/Third_Party/RealThread_RTOS_RT-Thread/src/timer.c ****         *(rt_tick_t *)arg = timer->init_tick;
 734              		.loc 1 468 0
 735 000c 436A     		ldr	r3, [r0, #36]
 736 000e 1360     		str	r3, [r2]
 737              	.L43:
 469:Middlewares/Third_Party/RealThread_RTOS_RT-Thread/src/timer.c ****         break;
 470:Middlewares/Third_Party/RealThread_RTOS_RT-Thread/src/timer.c **** 
 471:Middlewares/Third_Party/RealThread_RTOS_RT-Thread/src/timer.c ****     case RT_TIMER_CTRL_SET_TIME:
 472:Middlewares/Third_Party/RealThread_RTOS_RT-Thread/src/timer.c ****         timer->init_tick = *(rt_tick_t *)arg;
 473:Middlewares/Third_Party/RealThread_RTOS_RT-Thread/src/timer.c ****         break;
 474:Middlewares/Third_Party/RealThread_RTOS_RT-Thread/src/timer.c **** 
 475:Middlewares/Third_Party/RealThread_RTOS_RT-Thread/src/timer.c ****     case RT_TIMER_CTRL_SET_ONESHOT:
 476:Middlewares/Third_Party/RealThread_RTOS_RT-Thread/src/timer.c ****         timer->parent.flag &= ~RT_TIMER_FLAG_PERIODIC;
 477:Middlewares/Third_Party/RealThread_RTOS_RT-Thread/src/timer.c ****         break;
 478:Middlewares/Third_Party/RealThread_RTOS_RT-Thread/src/timer.c **** 
 479:Middlewares/Third_Party/RealThread_RTOS_RT-Thread/src/timer.c ****     case RT_TIMER_CTRL_SET_PERIODIC:
 480:Middlewares/Third_Party/RealThread_RTOS_RT-Thread/src/timer.c ****         timer->parent.flag |= RT_TIMER_FLAG_PERIODIC;
 481:Middlewares/Third_Party/RealThread_RTOS_RT-Thread/src/timer.c ****         break;
 482:Middlewares/Third_Party/RealThread_RTOS_RT-Thread/src/timer.c ****     }
 483:Middlewares/Third_Party/RealThread_RTOS_RT-Thread/src/timer.c **** 
 484:Middlewares/Third_Party/RealThread_RTOS_RT-Thread/src/timer.c ****     return RT_EOK;
 485:Middlewares/Third_Party/RealThread_RTOS_RT-Thread/src/timer.c **** }
 738              		.loc 1 485 0
 739 0010 0020     		movs	r0, #0
 740              	.LVL84:
 741 0012 7047     		bx	lr
 742              	.LVL85:
 743              	.L44:
 472:Middlewares/Third_Party/RealThread_RTOS_RT-Thread/src/timer.c ****         break;
 744              		.loc 1 472 0
 745 0014 1368     		ldr	r3, [r2]
 746 0016 4362     		str	r3, [r0, #36]
 473:Middlewares/Third_Party/RealThread_RTOS_RT-Thread/src/timer.c **** 
 747              		.loc 1 473 0
 748 0018 FAE7     		b	.L43
 749              	.L47:
 476:Middlewares/Third_Party/RealThread_RTOS_RT-Thread/src/timer.c ****         break;
 750              		.loc 1 476 0
 751 001a 437A     		ldrb	r3, [r0, #9]	@ zero_extendqisi2
 752 001c 23F00203 		bic	r3, r3, #2
 753 0020 4372     		strb	r3, [r0, #9]
 477:Middlewares/Third_Party/RealThread_RTOS_RT-Thread/src/timer.c **** 
 754              		.loc 1 477 0
 755 0022 F5E7     		b	.L43
ARM GAS  C:\Users\chuti\AppData\Local\Temp\cco5XJIB.s 			page 25


 756              	.L48:
 480:Middlewares/Third_Party/RealThread_RTOS_RT-Thread/src/timer.c ****         break;
 757              		.loc 1 480 0
 758 0024 437A     		ldrb	r3, [r0, #9]	@ zero_extendqisi2
 759 0026 43F00203 		orr	r3, r3, #2
 760 002a 4372     		strb	r3, [r0, #9]
 481:Middlewares/Third_Party/RealThread_RTOS_RT-Thread/src/timer.c ****     }
 761              		.loc 1 481 0
 762 002c F0E7     		b	.L43
 763              		.cfi_endproc
 764              	.LFE24:
 766              		.section	.text.rt_timer_check,"ax",%progbits
 767              		.align	1
 768              		.global	rt_timer_check
 769              		.syntax unified
 770              		.thumb
 771              		.thumb_func
 772              		.fpu fpv4-sp-d16
 774              	rt_timer_check:
 775              	.LFB25:
 486:Middlewares/Third_Party/RealThread_RTOS_RT-Thread/src/timer.c **** RTM_EXPORT(rt_timer_control);
 487:Middlewares/Third_Party/RealThread_RTOS_RT-Thread/src/timer.c **** 
 488:Middlewares/Third_Party/RealThread_RTOS_RT-Thread/src/timer.c **** /**
 489:Middlewares/Third_Party/RealThread_RTOS_RT-Thread/src/timer.c ****  * This function will check timer list, if a timeout event happens, the
 490:Middlewares/Third_Party/RealThread_RTOS_RT-Thread/src/timer.c ****  * corresponding timeout function will be invoked.
 491:Middlewares/Third_Party/RealThread_RTOS_RT-Thread/src/timer.c ****  *
 492:Middlewares/Third_Party/RealThread_RTOS_RT-Thread/src/timer.c ****  * @note this function shall be invoked in operating system timer interrupt.
 493:Middlewares/Third_Party/RealThread_RTOS_RT-Thread/src/timer.c ****  */
 494:Middlewares/Third_Party/RealThread_RTOS_RT-Thread/src/timer.c **** void rt_timer_check(void)
 495:Middlewares/Third_Party/RealThread_RTOS_RT-Thread/src/timer.c **** {
 776              		.loc 1 495 0
 777              		.cfi_startproc
 778              		@ args = 0, pretend = 0, frame = 0
 779              		@ frame_needed = 0, uses_anonymous_args = 0
 780 0000 F8B5     		push	{r3, r4, r5, r6, r7, lr}
 781              	.LCFI18:
 782              		.cfi_def_cfa_offset 24
 783              		.cfi_offset 3, -24
 784              		.cfi_offset 4, -20
 785              		.cfi_offset 5, -16
 786              		.cfi_offset 6, -12
 787              		.cfi_offset 7, -8
 788              		.cfi_offset 14, -4
 496:Middlewares/Third_Party/RealThread_RTOS_RT-Thread/src/timer.c ****     struct rt_timer *t;
 497:Middlewares/Third_Party/RealThread_RTOS_RT-Thread/src/timer.c ****     rt_tick_t current_tick;
 498:Middlewares/Third_Party/RealThread_RTOS_RT-Thread/src/timer.c ****     register rt_base_t level;
 499:Middlewares/Third_Party/RealThread_RTOS_RT-Thread/src/timer.c **** 
 500:Middlewares/Third_Party/RealThread_RTOS_RT-Thread/src/timer.c ****     RT_DEBUG_LOG(RT_DEBUG_TIMER, ("timer check enter\n"));
 501:Middlewares/Third_Party/RealThread_RTOS_RT-Thread/src/timer.c **** 
 502:Middlewares/Third_Party/RealThread_RTOS_RT-Thread/src/timer.c ****     current_tick = rt_tick_get();
 789              		.loc 1 502 0
 790 0002 FFF7FEFF 		bl	rt_tick_get
 791              	.LVL86:
 792 0006 0746     		mov	r7, r0
 793              	.LVL87:
 503:Middlewares/Third_Party/RealThread_RTOS_RT-Thread/src/timer.c **** 
 504:Middlewares/Third_Party/RealThread_RTOS_RT-Thread/src/timer.c ****     /* disable interrupt */
ARM GAS  C:\Users\chuti\AppData\Local\Temp\cco5XJIB.s 			page 26


 505:Middlewares/Third_Party/RealThread_RTOS_RT-Thread/src/timer.c ****     level = rt_hw_interrupt_disable();
 794              		.loc 1 505 0
 795 0008 FFF7FEFF 		bl	rt_hw_interrupt_disable
 796              	.LVL88:
 797 000c 0546     		mov	r5, r0
 798              	.LVL89:
 799              	.L50:
 800              	.LBB68:
 801              	.LBB69:
 802              		.loc 2 100 0
 803 000e 214B     		ldr	r3, .L60
 804 0010 1C68     		ldr	r4, [r3]
 805              	.LVL90:
 806              	.LBE69:
 807              	.LBE68:
 506:Middlewares/Third_Party/RealThread_RTOS_RT-Thread/src/timer.c **** 
 507:Middlewares/Third_Party/RealThread_RTOS_RT-Thread/src/timer.c ****     while (!rt_list_isempty(&rt_timer_list[RT_TIMER_SKIP_LIST_LEVEL - 1]))
 808              		.loc 1 507 0
 809 0012 9C42     		cmp	r4, r3
 810 0014 03D1     		bne	.L56
 811              	.LVL91:
 812              	.L52:
 508:Middlewares/Third_Party/RealThread_RTOS_RT-Thread/src/timer.c ****     {
 509:Middlewares/Third_Party/RealThread_RTOS_RT-Thread/src/timer.c ****         t = rt_list_entry(rt_timer_list[RT_TIMER_SKIP_LIST_LEVEL - 1].next,
 510:Middlewares/Third_Party/RealThread_RTOS_RT-Thread/src/timer.c ****                           struct rt_timer, row[RT_TIMER_SKIP_LIST_LEVEL - 1]);
 511:Middlewares/Third_Party/RealThread_RTOS_RT-Thread/src/timer.c **** 
 512:Middlewares/Third_Party/RealThread_RTOS_RT-Thread/src/timer.c ****         /*
 513:Middlewares/Third_Party/RealThread_RTOS_RT-Thread/src/timer.c ****          * It supposes that the new tick shall less than the half duration of
 514:Middlewares/Third_Party/RealThread_RTOS_RT-Thread/src/timer.c ****          * tick max.
 515:Middlewares/Third_Party/RealThread_RTOS_RT-Thread/src/timer.c ****          */
 516:Middlewares/Third_Party/RealThread_RTOS_RT-Thread/src/timer.c ****         if ((current_tick - t->timeout_tick) < RT_TICK_MAX / 2)
 517:Middlewares/Third_Party/RealThread_RTOS_RT-Thread/src/timer.c ****         {
 518:Middlewares/Third_Party/RealThread_RTOS_RT-Thread/src/timer.c ****             RT_OBJECT_HOOK_CALL(rt_timer_enter_hook, (t));
 519:Middlewares/Third_Party/RealThread_RTOS_RT-Thread/src/timer.c **** 
 520:Middlewares/Third_Party/RealThread_RTOS_RT-Thread/src/timer.c ****             /* remove timer from timer list firstly */
 521:Middlewares/Third_Party/RealThread_RTOS_RT-Thread/src/timer.c ****             _rt_timer_remove(t);
 522:Middlewares/Third_Party/RealThread_RTOS_RT-Thread/src/timer.c **** 
 523:Middlewares/Third_Party/RealThread_RTOS_RT-Thread/src/timer.c ****             /* call timeout function */
 524:Middlewares/Third_Party/RealThread_RTOS_RT-Thread/src/timer.c ****             t->timeout_func(t->parameter);
 525:Middlewares/Third_Party/RealThread_RTOS_RT-Thread/src/timer.c **** 
 526:Middlewares/Third_Party/RealThread_RTOS_RT-Thread/src/timer.c ****             /* re-get tick */
 527:Middlewares/Third_Party/RealThread_RTOS_RT-Thread/src/timer.c ****             current_tick = rt_tick_get();
 528:Middlewares/Third_Party/RealThread_RTOS_RT-Thread/src/timer.c **** 
 529:Middlewares/Third_Party/RealThread_RTOS_RT-Thread/src/timer.c ****             RT_OBJECT_HOOK_CALL(rt_timer_exit_hook, (t));
 530:Middlewares/Third_Party/RealThread_RTOS_RT-Thread/src/timer.c ****             RT_DEBUG_LOG(RT_DEBUG_TIMER, ("current tick: %d\n", current_tick));
 531:Middlewares/Third_Party/RealThread_RTOS_RT-Thread/src/timer.c **** 
 532:Middlewares/Third_Party/RealThread_RTOS_RT-Thread/src/timer.c ****             if ((t->parent.flag & RT_TIMER_FLAG_PERIODIC) &&
 533:Middlewares/Third_Party/RealThread_RTOS_RT-Thread/src/timer.c ****                 (t->parent.flag & RT_TIMER_FLAG_ACTIVATED))
 534:Middlewares/Third_Party/RealThread_RTOS_RT-Thread/src/timer.c ****             {
 535:Middlewares/Third_Party/RealThread_RTOS_RT-Thread/src/timer.c ****                 /* start it */
 536:Middlewares/Third_Party/RealThread_RTOS_RT-Thread/src/timer.c ****                 t->parent.flag &= ~RT_TIMER_FLAG_ACTIVATED;
 537:Middlewares/Third_Party/RealThread_RTOS_RT-Thread/src/timer.c ****                 rt_timer_start(t);
 538:Middlewares/Third_Party/RealThread_RTOS_RT-Thread/src/timer.c ****             }
 539:Middlewares/Third_Party/RealThread_RTOS_RT-Thread/src/timer.c ****             else
 540:Middlewares/Third_Party/RealThread_RTOS_RT-Thread/src/timer.c ****             {
 541:Middlewares/Third_Party/RealThread_RTOS_RT-Thread/src/timer.c ****                 /* stop timer */
 542:Middlewares/Third_Party/RealThread_RTOS_RT-Thread/src/timer.c ****                 t->parent.flag &= ~RT_TIMER_FLAG_ACTIVATED;
ARM GAS  C:\Users\chuti\AppData\Local\Temp\cco5XJIB.s 			page 27


 543:Middlewares/Third_Party/RealThread_RTOS_RT-Thread/src/timer.c ****             }
 544:Middlewares/Third_Party/RealThread_RTOS_RT-Thread/src/timer.c ****         }
 545:Middlewares/Third_Party/RealThread_RTOS_RT-Thread/src/timer.c ****         else
 546:Middlewares/Third_Party/RealThread_RTOS_RT-Thread/src/timer.c ****             break;
 547:Middlewares/Third_Party/RealThread_RTOS_RT-Thread/src/timer.c ****     }
 548:Middlewares/Third_Party/RealThread_RTOS_RT-Thread/src/timer.c **** 
 549:Middlewares/Third_Party/RealThread_RTOS_RT-Thread/src/timer.c ****     /* enable interrupt */
 550:Middlewares/Third_Party/RealThread_RTOS_RT-Thread/src/timer.c ****     rt_hw_interrupt_enable(level);
 813              		.loc 1 550 0
 814 0016 2846     		mov	r0, r5
 815 0018 FFF7FEFF 		bl	rt_hw_interrupt_enable
 816              	.LVL92:
 551:Middlewares/Third_Party/RealThread_RTOS_RT-Thread/src/timer.c **** 
 552:Middlewares/Third_Party/RealThread_RTOS_RT-Thread/src/timer.c ****     RT_DEBUG_LOG(RT_DEBUG_TIMER, ("timer check leave\n"));
 553:Middlewares/Third_Party/RealThread_RTOS_RT-Thread/src/timer.c **** }
 817              		.loc 1 553 0
 818 001c F8BD     		pop	{r3, r4, r5, r6, r7, pc}
 819              	.LVL93:
 820              	.L56:
 509:Middlewares/Third_Party/RealThread_RTOS_RT-Thread/src/timer.c ****                           struct rt_timer, row[RT_TIMER_SKIP_LIST_LEVEL - 1]);
 821              		.loc 1 509 0
 822 001e A4F11406 		sub	r6, r4, #20
 823              	.LVL94:
 516:Middlewares/Third_Party/RealThread_RTOS_RT-Thread/src/timer.c ****         {
 824              		.loc 1 516 0
 825 0022 6369     		ldr	r3, [r4, #20]
 826 0024 FF1A     		subs	r7, r7, r3
 827              	.LVL95:
 828 0026 1C4B     		ldr	r3, .L60+4
 829 0028 9F42     		cmp	r7, r3
 830 002a F4D8     		bhi	.L52
 831              	.LBB70:
 832              	.LBB71:
 125:Middlewares/Third_Party/RealThread_RTOS_RT-Thread/src/timer.c ****     {
 833              		.loc 1 125 0
 834 002c 0021     		movs	r1, #0
 835              	.L51:
 836              	.LVL96:
 837 002e 0029     		cmp	r1, #0
 838 0030 10DD     		ble	.L53
 839              	.LVL97:
 840              	.LBE71:
 841              	.LBE70:
 524:Middlewares/Third_Party/RealThread_RTOS_RT-Thread/src/timer.c **** 
 842              		.loc 1 524 0
 843 0032 A368     		ldr	r3, [r4, #8]
 844 0034 E068     		ldr	r0, [r4, #12]
 845 0036 9847     		blx	r3
 846              	.LVL98:
 527:Middlewares/Third_Party/RealThread_RTOS_RT-Thread/src/timer.c **** 
 847              		.loc 1 527 0
 848 0038 FFF7FEFF 		bl	rt_tick_get
 849              	.LVL99:
 850 003c 0746     		mov	r7, r0
 851              	.LVL100:
 532:Middlewares/Third_Party/RealThread_RTOS_RT-Thread/src/timer.c ****                 (t->parent.flag & RT_TIMER_FLAG_ACTIVATED))
 852              		.loc 1 532 0
ARM GAS  C:\Users\chuti\AppData\Local\Temp\cco5XJIB.s 			page 28


 853 003e 14F80B3C 		ldrb	r3, [r4, #-11]	@ zero_extendqisi2
 854 0042 03F00302 		and	r2, r3, #3
 855 0046 032A     		cmp	r2, #3
 856 0048 1BD0     		beq	.L59
 542:Middlewares/Third_Party/RealThread_RTOS_RT-Thread/src/timer.c ****             }
 857              		.loc 1 542 0
 858 004a 23F00103 		bic	r3, r3, #1
 859 004e 04F80B3C 		strb	r3, [r4, #-11]
 860 0052 DCE7     		b	.L50
 861              	.LVL101:
 862              	.L53:
 863              	.LBB75:
 864              	.LBB74:
 127:Middlewares/Third_Party/RealThread_RTOS_RT-Thread/src/timer.c ****     }
 865              		.loc 1 127 0
 866 0054 A4F11402 		sub	r2, r4, #20
 867 0058 8B1C     		adds	r3, r1, #2
 868 005a DB00     		lsls	r3, r3, #3
 869 005c 1A44     		add	r2, r2, r3
 870 005e 0432     		adds	r2, r2, #4
 871              	.LVL102:
 872              	.LBB72:
 873              	.LBB73:
  88:Middlewares/Third_Party/RealThread_RTOS_RT-Thread/include/rtservice.h ****     n->prev->next = n->next;
 874              		.loc 2 88 0
 875 0060 2344     		add	r3, r3, r4
 876 0062 53F8100C 		ldr	r0, [r3, #-16]
 877 0066 53F80C7C 		ldr	r7, [r3, #-12]
 878 006a 4760     		str	r7, [r0, #4]
  89:Middlewares/Third_Party/RealThread_RTOS_RT-Thread/include/rtservice.h **** 
 879              		.loc 2 89 0
 880 006c 53F80C0C 		ldr	r0, [r3, #-12]
 881 0070 53F8107C 		ldr	r7, [r3, #-16]
 882 0074 0760     		str	r7, [r0]
  91:Middlewares/Third_Party/RealThread_RTOS_RT-Thread/include/rtservice.h **** }
 883              		.loc 2 91 0
 884 0076 43F80C2C 		str	r2, [r3, #-12]
 885 007a 43F8102C 		str	r2, [r3, #-16]
 886              	.LVL103:
 887              	.LBE73:
 888              	.LBE72:
 125:Middlewares/Third_Party/RealThread_RTOS_RT-Thread/src/timer.c ****     {
 889              		.loc 1 125 0
 890 007e 0131     		adds	r1, r1, #1
 891              	.LVL104:
 892 0080 D5E7     		b	.L51
 893              	.LVL105:
 894              	.L59:
 895              	.LBE74:
 896              	.LBE75:
 536:Middlewares/Third_Party/RealThread_RTOS_RT-Thread/src/timer.c ****                 rt_timer_start(t);
 897              		.loc 1 536 0
 898 0082 23F00103 		bic	r3, r3, #1
 899 0086 04F80B3C 		strb	r3, [r4, #-11]
 537:Middlewares/Third_Party/RealThread_RTOS_RT-Thread/src/timer.c ****             }
 900              		.loc 1 537 0
 901 008a 3046     		mov	r0, r6
ARM GAS  C:\Users\chuti\AppData\Local\Temp\cco5XJIB.s 			page 29


 902              	.LVL106:
 903 008c FFF7FEFF 		bl	rt_timer_start
 904              	.LVL107:
 905 0090 BDE7     		b	.L50
 906              	.L61:
 907 0092 00BF     		.align	2
 908              	.L60:
 909 0094 00000000 		.word	.LANCHOR0
 910 0098 FEFFFF7F 		.word	2147483646
 911              		.cfi_endproc
 912              	.LFE25:
 914              		.section	.text.rt_timer_next_timeout_tick,"ax",%progbits
 915              		.align	1
 916              		.global	rt_timer_next_timeout_tick
 917              		.syntax unified
 918              		.thumb
 919              		.thumb_func
 920              		.fpu fpv4-sp-d16
 922              	rt_timer_next_timeout_tick:
 923              	.LFB26:
 554:Middlewares/Third_Party/RealThread_RTOS_RT-Thread/src/timer.c **** 
 555:Middlewares/Third_Party/RealThread_RTOS_RT-Thread/src/timer.c **** /**
 556:Middlewares/Third_Party/RealThread_RTOS_RT-Thread/src/timer.c ****  * This function will return the next timeout tick in the system.
 557:Middlewares/Third_Party/RealThread_RTOS_RT-Thread/src/timer.c ****  *
 558:Middlewares/Third_Party/RealThread_RTOS_RT-Thread/src/timer.c ****  * @return the next timeout tick in the system
 559:Middlewares/Third_Party/RealThread_RTOS_RT-Thread/src/timer.c ****  */
 560:Middlewares/Third_Party/RealThread_RTOS_RT-Thread/src/timer.c **** rt_tick_t rt_timer_next_timeout_tick(void)
 561:Middlewares/Third_Party/RealThread_RTOS_RT-Thread/src/timer.c **** {
 924              		.loc 1 561 0
 925              		.cfi_startproc
 926              		@ args = 0, pretend = 0, frame = 0
 927              		@ frame_needed = 0, uses_anonymous_args = 0
 928 0000 08B5     		push	{r3, lr}
 929              	.LCFI19:
 930              		.cfi_def_cfa_offset 8
 931              		.cfi_offset 3, -8
 932              		.cfi_offset 14, -4
 562:Middlewares/Third_Party/RealThread_RTOS_RT-Thread/src/timer.c ****     return rt_timer_list_next_timeout(rt_timer_list);
 933              		.loc 1 562 0
 934 0002 0248     		ldr	r0, .L64
 935 0004 FFF7FEFF 		bl	rt_timer_list_next_timeout
 936              	.LVL108:
 563:Middlewares/Third_Party/RealThread_RTOS_RT-Thread/src/timer.c **** }
 937              		.loc 1 563 0
 938 0008 08BD     		pop	{r3, pc}
 939              	.L65:
 940 000a 00BF     		.align	2
 941              	.L64:
 942 000c 00000000 		.word	.LANCHOR0
 943              		.cfi_endproc
 944              	.LFE26:
 946              		.section	.text.rt_system_timer_init,"ax",%progbits
 947              		.align	1
 948              		.global	rt_system_timer_init
 949              		.syntax unified
 950              		.thumb
 951              		.thumb_func
ARM GAS  C:\Users\chuti\AppData\Local\Temp\cco5XJIB.s 			page 30


 952              		.fpu fpv4-sp-d16
 954              	rt_system_timer_init:
 955              	.LFB27:
 564:Middlewares/Third_Party/RealThread_RTOS_RT-Thread/src/timer.c **** 
 565:Middlewares/Third_Party/RealThread_RTOS_RT-Thread/src/timer.c **** #ifdef RT_USING_TIMER_SOFT
 566:Middlewares/Third_Party/RealThread_RTOS_RT-Thread/src/timer.c **** /**
 567:Middlewares/Third_Party/RealThread_RTOS_RT-Thread/src/timer.c ****  * This function will check timer list, if a timeout event happens, the
 568:Middlewares/Third_Party/RealThread_RTOS_RT-Thread/src/timer.c ****  * corresponding timeout function will be invoked.
 569:Middlewares/Third_Party/RealThread_RTOS_RT-Thread/src/timer.c ****  */
 570:Middlewares/Third_Party/RealThread_RTOS_RT-Thread/src/timer.c **** void rt_soft_timer_check(void)
 571:Middlewares/Third_Party/RealThread_RTOS_RT-Thread/src/timer.c **** {
 572:Middlewares/Third_Party/RealThread_RTOS_RT-Thread/src/timer.c ****     rt_tick_t current_tick;
 573:Middlewares/Third_Party/RealThread_RTOS_RT-Thread/src/timer.c ****     rt_list_t *n;
 574:Middlewares/Third_Party/RealThread_RTOS_RT-Thread/src/timer.c ****     struct rt_timer *t;
 575:Middlewares/Third_Party/RealThread_RTOS_RT-Thread/src/timer.c **** 
 576:Middlewares/Third_Party/RealThread_RTOS_RT-Thread/src/timer.c ****     RT_DEBUG_LOG(RT_DEBUG_TIMER, ("software timer check enter\n"));
 577:Middlewares/Third_Party/RealThread_RTOS_RT-Thread/src/timer.c **** 
 578:Middlewares/Third_Party/RealThread_RTOS_RT-Thread/src/timer.c ****     current_tick = rt_tick_get();
 579:Middlewares/Third_Party/RealThread_RTOS_RT-Thread/src/timer.c **** 
 580:Middlewares/Third_Party/RealThread_RTOS_RT-Thread/src/timer.c ****     /* lock scheduler */
 581:Middlewares/Third_Party/RealThread_RTOS_RT-Thread/src/timer.c ****     rt_enter_critical();
 582:Middlewares/Third_Party/RealThread_RTOS_RT-Thread/src/timer.c **** 
 583:Middlewares/Third_Party/RealThread_RTOS_RT-Thread/src/timer.c ****     for (n = rt_soft_timer_list[RT_TIMER_SKIP_LIST_LEVEL - 1].next;
 584:Middlewares/Third_Party/RealThread_RTOS_RT-Thread/src/timer.c ****          n != &(rt_soft_timer_list[RT_TIMER_SKIP_LIST_LEVEL - 1]);)
 585:Middlewares/Third_Party/RealThread_RTOS_RT-Thread/src/timer.c ****     {
 586:Middlewares/Third_Party/RealThread_RTOS_RT-Thread/src/timer.c ****         t = rt_list_entry(n, struct rt_timer, row[RT_TIMER_SKIP_LIST_LEVEL - 1]);
 587:Middlewares/Third_Party/RealThread_RTOS_RT-Thread/src/timer.c **** 
 588:Middlewares/Third_Party/RealThread_RTOS_RT-Thread/src/timer.c ****         /*
 589:Middlewares/Third_Party/RealThread_RTOS_RT-Thread/src/timer.c ****          * It supposes that the new tick shall less than the half duration of
 590:Middlewares/Third_Party/RealThread_RTOS_RT-Thread/src/timer.c ****          * tick max.
 591:Middlewares/Third_Party/RealThread_RTOS_RT-Thread/src/timer.c ****          */
 592:Middlewares/Third_Party/RealThread_RTOS_RT-Thread/src/timer.c ****         if ((current_tick - t->timeout_tick) < RT_TICK_MAX / 2)
 593:Middlewares/Third_Party/RealThread_RTOS_RT-Thread/src/timer.c ****         {
 594:Middlewares/Third_Party/RealThread_RTOS_RT-Thread/src/timer.c ****             RT_OBJECT_HOOK_CALL(rt_timer_enter_hook, (t));
 595:Middlewares/Third_Party/RealThread_RTOS_RT-Thread/src/timer.c **** 
 596:Middlewares/Third_Party/RealThread_RTOS_RT-Thread/src/timer.c ****             /* move node to the next */
 597:Middlewares/Third_Party/RealThread_RTOS_RT-Thread/src/timer.c ****             n = n->next;
 598:Middlewares/Third_Party/RealThread_RTOS_RT-Thread/src/timer.c **** 
 599:Middlewares/Third_Party/RealThread_RTOS_RT-Thread/src/timer.c ****             /* remove timer from timer list firstly */
 600:Middlewares/Third_Party/RealThread_RTOS_RT-Thread/src/timer.c ****             _rt_timer_remove(t);
 601:Middlewares/Third_Party/RealThread_RTOS_RT-Thread/src/timer.c **** 
 602:Middlewares/Third_Party/RealThread_RTOS_RT-Thread/src/timer.c ****             /* not lock scheduler when performing timeout function */
 603:Middlewares/Third_Party/RealThread_RTOS_RT-Thread/src/timer.c ****             rt_exit_critical();
 604:Middlewares/Third_Party/RealThread_RTOS_RT-Thread/src/timer.c ****             /* call timeout function */
 605:Middlewares/Third_Party/RealThread_RTOS_RT-Thread/src/timer.c ****             t->timeout_func(t->parameter);
 606:Middlewares/Third_Party/RealThread_RTOS_RT-Thread/src/timer.c **** 
 607:Middlewares/Third_Party/RealThread_RTOS_RT-Thread/src/timer.c ****             /* re-get tick */
 608:Middlewares/Third_Party/RealThread_RTOS_RT-Thread/src/timer.c ****             current_tick = rt_tick_get();
 609:Middlewares/Third_Party/RealThread_RTOS_RT-Thread/src/timer.c **** 
 610:Middlewares/Third_Party/RealThread_RTOS_RT-Thread/src/timer.c ****             RT_OBJECT_HOOK_CALL(rt_timer_exit_hook, (t));
 611:Middlewares/Third_Party/RealThread_RTOS_RT-Thread/src/timer.c ****             RT_DEBUG_LOG(RT_DEBUG_TIMER, ("current tick: %d\n", current_tick));
 612:Middlewares/Third_Party/RealThread_RTOS_RT-Thread/src/timer.c **** 
 613:Middlewares/Third_Party/RealThread_RTOS_RT-Thread/src/timer.c ****             /* lock scheduler */
 614:Middlewares/Third_Party/RealThread_RTOS_RT-Thread/src/timer.c ****             rt_enter_critical();
 615:Middlewares/Third_Party/RealThread_RTOS_RT-Thread/src/timer.c **** 
 616:Middlewares/Third_Party/RealThread_RTOS_RT-Thread/src/timer.c ****             if ((t->parent.flag & RT_TIMER_FLAG_PERIODIC) &&
 617:Middlewares/Third_Party/RealThread_RTOS_RT-Thread/src/timer.c ****                 (t->parent.flag & RT_TIMER_FLAG_ACTIVATED))
ARM GAS  C:\Users\chuti\AppData\Local\Temp\cco5XJIB.s 			page 31


 618:Middlewares/Third_Party/RealThread_RTOS_RT-Thread/src/timer.c ****             {
 619:Middlewares/Third_Party/RealThread_RTOS_RT-Thread/src/timer.c ****                 /* start it */
 620:Middlewares/Third_Party/RealThread_RTOS_RT-Thread/src/timer.c ****                 t->parent.flag &= ~RT_TIMER_FLAG_ACTIVATED;
 621:Middlewares/Third_Party/RealThread_RTOS_RT-Thread/src/timer.c ****                 rt_timer_start(t);
 622:Middlewares/Third_Party/RealThread_RTOS_RT-Thread/src/timer.c ****             }
 623:Middlewares/Third_Party/RealThread_RTOS_RT-Thread/src/timer.c ****             else
 624:Middlewares/Third_Party/RealThread_RTOS_RT-Thread/src/timer.c ****             {
 625:Middlewares/Third_Party/RealThread_RTOS_RT-Thread/src/timer.c ****                 /* stop timer */
 626:Middlewares/Third_Party/RealThread_RTOS_RT-Thread/src/timer.c ****                 t->parent.flag &= ~RT_TIMER_FLAG_ACTIVATED;
 627:Middlewares/Third_Party/RealThread_RTOS_RT-Thread/src/timer.c ****             }
 628:Middlewares/Third_Party/RealThread_RTOS_RT-Thread/src/timer.c ****         }
 629:Middlewares/Third_Party/RealThread_RTOS_RT-Thread/src/timer.c ****         else break; /* not check anymore */
 630:Middlewares/Third_Party/RealThread_RTOS_RT-Thread/src/timer.c ****     }
 631:Middlewares/Third_Party/RealThread_RTOS_RT-Thread/src/timer.c **** 
 632:Middlewares/Third_Party/RealThread_RTOS_RT-Thread/src/timer.c ****     /* unlock scheduler */
 633:Middlewares/Third_Party/RealThread_RTOS_RT-Thread/src/timer.c ****     rt_exit_critical();
 634:Middlewares/Third_Party/RealThread_RTOS_RT-Thread/src/timer.c **** 
 635:Middlewares/Third_Party/RealThread_RTOS_RT-Thread/src/timer.c ****     RT_DEBUG_LOG(RT_DEBUG_TIMER, ("software timer check leave\n"));
 636:Middlewares/Third_Party/RealThread_RTOS_RT-Thread/src/timer.c **** }
 637:Middlewares/Third_Party/RealThread_RTOS_RT-Thread/src/timer.c **** 
 638:Middlewares/Third_Party/RealThread_RTOS_RT-Thread/src/timer.c **** /* system timer thread entry */
 639:Middlewares/Third_Party/RealThread_RTOS_RT-Thread/src/timer.c **** static void rt_thread_timer_entry(void *parameter)
 640:Middlewares/Third_Party/RealThread_RTOS_RT-Thread/src/timer.c **** {
 641:Middlewares/Third_Party/RealThread_RTOS_RT-Thread/src/timer.c ****     rt_tick_t next_timeout;
 642:Middlewares/Third_Party/RealThread_RTOS_RT-Thread/src/timer.c **** 
 643:Middlewares/Third_Party/RealThread_RTOS_RT-Thread/src/timer.c ****     while (1)
 644:Middlewares/Third_Party/RealThread_RTOS_RT-Thread/src/timer.c ****     {
 645:Middlewares/Third_Party/RealThread_RTOS_RT-Thread/src/timer.c ****         /* get the next timeout tick */
 646:Middlewares/Third_Party/RealThread_RTOS_RT-Thread/src/timer.c ****         next_timeout = rt_timer_list_next_timeout(rt_soft_timer_list);
 647:Middlewares/Third_Party/RealThread_RTOS_RT-Thread/src/timer.c ****         if (next_timeout == RT_TICK_MAX)
 648:Middlewares/Third_Party/RealThread_RTOS_RT-Thread/src/timer.c ****         {
 649:Middlewares/Third_Party/RealThread_RTOS_RT-Thread/src/timer.c ****             /* no software timer exist, suspend self. */
 650:Middlewares/Third_Party/RealThread_RTOS_RT-Thread/src/timer.c ****             rt_thread_suspend(rt_thread_self());
 651:Middlewares/Third_Party/RealThread_RTOS_RT-Thread/src/timer.c ****             rt_schedule();
 652:Middlewares/Third_Party/RealThread_RTOS_RT-Thread/src/timer.c ****         }
 653:Middlewares/Third_Party/RealThread_RTOS_RT-Thread/src/timer.c ****         else
 654:Middlewares/Third_Party/RealThread_RTOS_RT-Thread/src/timer.c ****         {
 655:Middlewares/Third_Party/RealThread_RTOS_RT-Thread/src/timer.c ****             rt_tick_t current_tick;
 656:Middlewares/Third_Party/RealThread_RTOS_RT-Thread/src/timer.c **** 
 657:Middlewares/Third_Party/RealThread_RTOS_RT-Thread/src/timer.c ****             /* get current tick */
 658:Middlewares/Third_Party/RealThread_RTOS_RT-Thread/src/timer.c ****             current_tick = rt_tick_get();
 659:Middlewares/Third_Party/RealThread_RTOS_RT-Thread/src/timer.c **** 
 660:Middlewares/Third_Party/RealThread_RTOS_RT-Thread/src/timer.c ****             if ((next_timeout - current_tick) < RT_TICK_MAX / 2)
 661:Middlewares/Third_Party/RealThread_RTOS_RT-Thread/src/timer.c ****             {
 662:Middlewares/Third_Party/RealThread_RTOS_RT-Thread/src/timer.c ****                 /* get the delta timeout tick */
 663:Middlewares/Third_Party/RealThread_RTOS_RT-Thread/src/timer.c ****                 next_timeout = next_timeout - current_tick;
 664:Middlewares/Third_Party/RealThread_RTOS_RT-Thread/src/timer.c ****                 rt_thread_delay(next_timeout);
 665:Middlewares/Third_Party/RealThread_RTOS_RT-Thread/src/timer.c ****             }
 666:Middlewares/Third_Party/RealThread_RTOS_RT-Thread/src/timer.c ****         }
 667:Middlewares/Third_Party/RealThread_RTOS_RT-Thread/src/timer.c **** 
 668:Middlewares/Third_Party/RealThread_RTOS_RT-Thread/src/timer.c ****         /* check software timer */
 669:Middlewares/Third_Party/RealThread_RTOS_RT-Thread/src/timer.c ****         rt_soft_timer_check();
 670:Middlewares/Third_Party/RealThread_RTOS_RT-Thread/src/timer.c ****     }
 671:Middlewares/Third_Party/RealThread_RTOS_RT-Thread/src/timer.c **** }
 672:Middlewares/Third_Party/RealThread_RTOS_RT-Thread/src/timer.c **** #endif
 673:Middlewares/Third_Party/RealThread_RTOS_RT-Thread/src/timer.c **** 
 674:Middlewares/Third_Party/RealThread_RTOS_RT-Thread/src/timer.c **** /**
ARM GAS  C:\Users\chuti\AppData\Local\Temp\cco5XJIB.s 			page 32


 675:Middlewares/Third_Party/RealThread_RTOS_RT-Thread/src/timer.c ****  * @ingroup SystemInit
 676:Middlewares/Third_Party/RealThread_RTOS_RT-Thread/src/timer.c ****  *
 677:Middlewares/Third_Party/RealThread_RTOS_RT-Thread/src/timer.c ****  * This function will initialize system timer
 678:Middlewares/Third_Party/RealThread_RTOS_RT-Thread/src/timer.c ****  */
 679:Middlewares/Third_Party/RealThread_RTOS_RT-Thread/src/timer.c **** void rt_system_timer_init(void)
 680:Middlewares/Third_Party/RealThread_RTOS_RT-Thread/src/timer.c **** {
 956              		.loc 1 680 0
 957              		.cfi_startproc
 958              		@ args = 0, pretend = 0, frame = 0
 959              		@ frame_needed = 0, uses_anonymous_args = 0
 960              		@ link register save eliminated.
 961              	.LVL109:
 681:Middlewares/Third_Party/RealThread_RTOS_RT-Thread/src/timer.c ****     int i;
 682:Middlewares/Third_Party/RealThread_RTOS_RT-Thread/src/timer.c **** 
 683:Middlewares/Third_Party/RealThread_RTOS_RT-Thread/src/timer.c ****     for (i = 0; i < sizeof(rt_timer_list) / sizeof(rt_timer_list[0]); i++)
 962              		.loc 1 683 0
 963 0000 0023     		movs	r3, #0
 964              	.LVL110:
 965              	.L67:
 966              		.loc 1 683 0 is_stmt 0 discriminator 1
 967 0002 03B1     		cbz	r3, .L68
 684:Middlewares/Third_Party/RealThread_RTOS_RT-Thread/src/timer.c ****     {
 685:Middlewares/Third_Party/RealThread_RTOS_RT-Thread/src/timer.c ****         rt_list_init(rt_timer_list + i);
 686:Middlewares/Third_Party/RealThread_RTOS_RT-Thread/src/timer.c ****     }
 687:Middlewares/Third_Party/RealThread_RTOS_RT-Thread/src/timer.c **** }
 968              		.loc 1 687 0 is_stmt 1
 969 0004 7047     		bx	lr
 970              	.L68:
 685:Middlewares/Third_Party/RealThread_RTOS_RT-Thread/src/timer.c ****     }
 971              		.loc 1 685 0 discriminator 3
 972 0006 0449     		ldr	r1, .L69
 973 0008 01EBC302 		add	r2, r1, r3, lsl #3
 974              	.LVL111:
 975              	.LBB76:
 976              	.LBB77:
  49:Middlewares/Third_Party/RealThread_RTOS_RT-Thread/include/rtservice.h **** }
 977              		.loc 2 49 0 discriminator 3
 978 000c 5260     		str	r2, [r2, #4]
 979 000e 41F83320 		str	r2, [r1, r3, lsl #3]
 980              	.LVL112:
 981              	.LBE77:
 982              	.LBE76:
 683:Middlewares/Third_Party/RealThread_RTOS_RT-Thread/src/timer.c ****     {
 983              		.loc 1 683 0 discriminator 3
 984 0012 0133     		adds	r3, r3, #1
 985              	.LVL113:
 986 0014 F5E7     		b	.L67
 987              	.L70:
 988 0016 00BF     		.align	2
 989              	.L69:
 990 0018 00000000 		.word	.LANCHOR0
 991              		.cfi_endproc
 992              	.LFE27:
 994              		.section	.text.rt_system_timer_thread_init,"ax",%progbits
 995              		.align	1
 996              		.global	rt_system_timer_thread_init
 997              		.syntax unified
ARM GAS  C:\Users\chuti\AppData\Local\Temp\cco5XJIB.s 			page 33


 998              		.thumb
 999              		.thumb_func
 1000              		.fpu fpv4-sp-d16
 1002              	rt_system_timer_thread_init:
 1003              	.LFB28:
 688:Middlewares/Third_Party/RealThread_RTOS_RT-Thread/src/timer.c **** 
 689:Middlewares/Third_Party/RealThread_RTOS_RT-Thread/src/timer.c **** /**
 690:Middlewares/Third_Party/RealThread_RTOS_RT-Thread/src/timer.c ****  * @ingroup SystemInit
 691:Middlewares/Third_Party/RealThread_RTOS_RT-Thread/src/timer.c ****  *
 692:Middlewares/Third_Party/RealThread_RTOS_RT-Thread/src/timer.c ****  * This function will initialize system timer thread
 693:Middlewares/Third_Party/RealThread_RTOS_RT-Thread/src/timer.c ****  */
 694:Middlewares/Third_Party/RealThread_RTOS_RT-Thread/src/timer.c **** void rt_system_timer_thread_init(void)
 695:Middlewares/Third_Party/RealThread_RTOS_RT-Thread/src/timer.c **** {
 1004              		.loc 1 695 0
 1005              		.cfi_startproc
 1006              		@ args = 0, pretend = 0, frame = 0
 1007              		@ frame_needed = 0, uses_anonymous_args = 0
 1008              		@ link register save eliminated.
 696:Middlewares/Third_Party/RealThread_RTOS_RT-Thread/src/timer.c **** #ifdef RT_USING_TIMER_SOFT
 697:Middlewares/Third_Party/RealThread_RTOS_RT-Thread/src/timer.c ****     int i;
 698:Middlewares/Third_Party/RealThread_RTOS_RT-Thread/src/timer.c **** 
 699:Middlewares/Third_Party/RealThread_RTOS_RT-Thread/src/timer.c ****     for (i = 0;
 700:Middlewares/Third_Party/RealThread_RTOS_RT-Thread/src/timer.c ****          i < sizeof(rt_soft_timer_list) / sizeof(rt_soft_timer_list[0]);
 701:Middlewares/Third_Party/RealThread_RTOS_RT-Thread/src/timer.c ****          i++)
 702:Middlewares/Third_Party/RealThread_RTOS_RT-Thread/src/timer.c ****     {
 703:Middlewares/Third_Party/RealThread_RTOS_RT-Thread/src/timer.c ****         rt_list_init(rt_soft_timer_list + i);
 704:Middlewares/Third_Party/RealThread_RTOS_RT-Thread/src/timer.c ****     }
 705:Middlewares/Third_Party/RealThread_RTOS_RT-Thread/src/timer.c **** 
 706:Middlewares/Third_Party/RealThread_RTOS_RT-Thread/src/timer.c ****     /* start software timer thread */
 707:Middlewares/Third_Party/RealThread_RTOS_RT-Thread/src/timer.c ****     rt_thread_init(&timer_thread,
 708:Middlewares/Third_Party/RealThread_RTOS_RT-Thread/src/timer.c ****                    "timer",
 709:Middlewares/Third_Party/RealThread_RTOS_RT-Thread/src/timer.c ****                    rt_thread_timer_entry,
 710:Middlewares/Third_Party/RealThread_RTOS_RT-Thread/src/timer.c ****                    RT_NULL,
 711:Middlewares/Third_Party/RealThread_RTOS_RT-Thread/src/timer.c ****                    &timer_thread_stack[0],
 712:Middlewares/Third_Party/RealThread_RTOS_RT-Thread/src/timer.c ****                    sizeof(timer_thread_stack),
 713:Middlewares/Third_Party/RealThread_RTOS_RT-Thread/src/timer.c ****                    RT_TIMER_THREAD_PRIO,
 714:Middlewares/Third_Party/RealThread_RTOS_RT-Thread/src/timer.c ****                    10);
 715:Middlewares/Third_Party/RealThread_RTOS_RT-Thread/src/timer.c **** 
 716:Middlewares/Third_Party/RealThread_RTOS_RT-Thread/src/timer.c ****     /* startup */
 717:Middlewares/Third_Party/RealThread_RTOS_RT-Thread/src/timer.c ****     rt_thread_startup(&timer_thread);
 718:Middlewares/Third_Party/RealThread_RTOS_RT-Thread/src/timer.c **** #endif
 719:Middlewares/Third_Party/RealThread_RTOS_RT-Thread/src/timer.c **** }
 1009              		.loc 1 719 0
 1010 0000 7047     		bx	lr
 1011              		.cfi_endproc
 1012              	.LFE28:
 1014              		.section	.bss.random_nr.5932,"aw",%nobits
 1015              		.align	2
 1016              		.set	.LANCHOR1,. + 0
 1019              	random_nr.5932:
 1020 0000 00000000 		.space	4
 1021              		.section	.bss.rt_timer_list,"aw",%nobits
 1022              		.align	2
 1023              		.set	.LANCHOR0,. + 0
 1026              	rt_timer_list:
 1027 0000 00000000 		.space	8
 1027      00000000 
ARM GAS  C:\Users\chuti\AppData\Local\Temp\cco5XJIB.s 			page 34


 1028              		.text
 1029              	.Letext0:
 1030              		.file 3 "Middlewares/Third_Party/RealThread_RTOS_RT-Thread/include/rtdef.h"
 1031              		.file 4 "Middlewares/Third_Party/RealThread_RTOS_RT-Thread/include/rtthread.h"
 1032              		.file 5 "Middlewares/Third_Party/RealThread_RTOS_RT-Thread/include/rthw.h"
ARM GAS  C:\Users\chuti\AppData\Local\Temp\cco5XJIB.s 			page 35

